ccopy_reg
_reconstructor
p0
(cnetworkx.classes.graph
Graph
p1
c__builtin__
object
p2
Ntp3
Rp4
(dp5
S'adjlist_inner_dict_factory'
p6
c__builtin__
dict
p7
sS'node_dict_factory'
p8
g7
sS'edge_attr_dict_factory'
p9
g7
sS'_node'
p10
(dp11
I0
(dp12
S'related_to'
p13
S'NaN'
p14
sS'pos'
p15
cnumpy.core.multiarray
_reconstruct
p16
(cnumpy
ndarray
p17
(I0
tp18
S'b'
p19
tp20
Rp21
(I1
(I2
tp22
cnumpy
dtype
p23
(S'f8'
p24
I0
I1
tp25
Rp26
(I3
S'<'
p27
NNNI-1
I-1
I0
tp28
bI00
S'\x9a\xf9\xef\xe6\xddrQ@\x02Xd\x89\xd1\x8c\x15@'
p29
tp30
bsS'description'
p31
S'corner'
p32
ssI1
(dp33
g13
g14
sg15
g16
(g17
(I0
tp34
g19
tp35
Rp36
(I1
(I2
tp37
g26
I00
S'\xc8]\xa3\x12\xba\xbc,@\xd0\xcbq\r1\xea=\xc0'
p38
tp39
bsg31
g32
ssI2
(dp40
g13
I0
sg15
g16
(g17
(I0
tp41
g19
tp42
Rp43
(I1
(I2
tp44
g26
I00
S'\x8e\xefX>\x80\xbaK@\x86\x9f\x95}\x02\xc0-@'
p45
tp46
bsg31
S'countor_point'
p47
ssI3
(dp48
g13
I0
sg15
g16
(g17
(I0
tp49
g19
tp50
Rp51
(I1
(I2
tp52
g26
I00
S'HI!\xb4w\x99I@M\x85e~\xdbN1@'
p53
tp54
bsg31
g47
ssI4
(dp55
g13
I0
sg15
g16
(g17
(I0
tp56
g19
tp57
Rp58
(I1
(I2
tp59
g26
I00
S"\x0e\xa1\x9d\xc8\x95'F@qo\x18\xeb\xf2`0@"
p60
tp61
bsg31
g47
ssI5
(dp62
g13
I0
sg15
g16
(g17
(I0
tp63
g19
tp64
Rp65
(I1
(I2
tp66
g26
I00
S"\x0e\xa1\x9d\xc8\x95'F@*`\xfa$\x1f\xbe*@"
p67
tp68
bsg31
g47
ssI6
(dp69
g13
I0
sg15
g16
(g17
(I0
tp70
g19
tp71
Rp72
(I1
(I2
tp73
g26
I00
S'HI!\xb4w\x99I@s4`\xfeM\xe2(@'
p74
tp75
bsg31
g47
ssI7
(dp76
g13
I1
sg15
g16
(g17
(I0
tp77
g19
tp78
Rp79
(I1
(I2
tp80
g26
I00
S'L\xc7\xd8\xc2<\x1fH@\xf0\x92\xa5\x1bG+\xf8?'
p81
tp82
bsg31
g47
ssI8
(dp83
g13
I1
sg15
g16
(g17
(I0
tp84
g19
tp85
Rp86
(I1
(I2
tp87
g26
I00
S'\x05!\xa184\xfeE@\xc8u\xa8\x8au\x8c\x0f@'
p88
tp89
bsg31
g47
ssI9
(dp90
g13
I1
sg15
g16
(g17
(I0
tp91
g19
tp92
Rp93
(I1
(I2
tp94
g26
I00
S'\xccx\x1dMR\x8cB@\xe8\xc6?\xf00\x1d\x08@'
p95
tp96
bsg31
g47
ssI10
(dp97
g13
I1
sg15
g16
(g17
(I0
tp98
g19
tp99
Rp100
(I1
(I2
tp101
g26
I00
S'\xccx\x1dMR\x8cB@\x00\x10\x98\xcbV,|?'
p102
tp103
bsg31
g47
ssI11
(dp104
g13
I1
sg15
g16
(g17
(I0
tp105
g19
tp106
Rp107
(I1
(I2
tp108
g26
I00
S'\x05!\xa184\xfeE@`\x8b\x0b\xbc\xb9\x84\xed\xbf'
p109
tp110
bsg31
g47
ssI12
(dp111
g13
I2
sg15
g16
(g17
(I0
tp112
g19
tp113
Rp114
(I1
(I2
tp115
g26
I00
S'\x96\x8b\xa9\xe6\xe6iF@xKV\x8e\x8f\x8c?@'
p116
tp117
bsg31
g47
ssI13
(dp118
g13
I2
sg15
g16
(g17
(I0
tp119
g19
tp120
Rp121
(I1
(I2
tp122
g26
I00
S'P\xe5q\\\xdeHD@\x81\x80\xf8\xe6\xb4\xfd@@'
p123
tp124
bsg31
g47
ssI14
(dp125
g13
I2
sg15
g16
(g17
(I0
tp126
g19
tp127
Rp128
(I1
(I2
tp129
g26
I00
S'\x17=\xeep\xfc\xd6@@\x93\xf5Q\x9d\xc0\x86@@'
p130
tp131
bsg31
g47
ssI15
(dp132
g13
I2
sg15
g16
(g17
(I0
tp133
g19
tp134
Rp135
(I1
(I2
tp136
g26
I00
S'\x17=\xeep\xfc\xd6@@\xca\xab\x08\xe2\x9d\x0b>@'
p137
tp138
bsg31
g47
ssI16
(dp139
g13
I2
sg15
g16
(g17
(I0
tp140
g19
tp141
Rp142
(I1
(I2
tp143
g26
I00
S'P\xe5q\\\xdeHD@\xee\x95\xbbN\xb5\x1d=@'
p144
tp145
bsg31
g47
ssI17
(dp146
g13
I3
sg15
g16
(g17
(I0
tp147
g19
tp148
Rp149
(I1
(I2
tp150
g26
I00
S'\xf8\xec\xfc^[\xd8B@w\xcb\x1e\xaa\xda\xd23@'
p151
tp152
bsg31
g47
ssI18
(dp153
g13
I3
sg15
g16
(g17
(I0
tp154
g19
tp155
Rp156
(I1
(I2
tp157
g26
I00
S'\xb1F\xc5\xd4R\xb7@@\x00\x81\xb9\xe9\xb4A6@'
p158
tp159
bsg31
g47
ssI19
(dp160
g13
I3
sg15
g16
(g17
(I0
tp161
g19
tp162
Rp163
(I1
(I2
tp164
g26
I00
S'\xf1<\x83\xd2\xe1\x8a:@%klV\xccS5@'
p165
tp166
bsg31
g47
ssI20
(dp167
g13
I3
sg15
g16
(g17
(I0
tp168
g19
tp169
Rp170
(I1
(I2
tp171
g26
I00
S'\xf1<\x83\xd2\xe1\x8a:@\xc8+\xd1\xfd\xe8Q2@'
p172
tp173
bsg31
g47
ssI21
(dp174
g13
I3
sg15
g16
(g17
(I0
tp175
g19
tp176
Rp177
(I1
(I2
tp178
g26
I00
S'\xb1F\xc5\xd4R\xb7@@\xed\x15\x84j\x00d1@'
p179
tp180
bsg31
g47
ssI22
(dp181
g13
I4
sg15
g16
(g17
(I0
tp182
g19
tp183
Rp184
(I1
(I2
tp185
g26
I00
S'/\x13\x0fY\x90\x05>@\x1e\xe9\xed\x99\x88Y\x1b@'
p186
tp187
bsg31
g47
ssI23
(dp188
g13
I4
sg15
g16
(g17
(I0
tp189
g19
tp190
Rp191
(I1
(I2
tp192
g26
I00
S'\xa1\xc6\x9fD\x7f\xc39@\xa2_,\xccx\x8a"@'
p193
tp194
bsg31
g47
ssI24
(dp195
g13
I4
sg15
g16
(g17
(I0
tp196
g19
tp197
Rp198
(I1
(I2
tp199
g26
I00
S'0v\x98m\xbb\xdf2@\xeb3\x92\xa5\xa7\xae @'
p200
tp201
bsg31
g47
ssI25
(dp202
g13
I4
sg15
g16
(g17
(I0
tp203
g19
tp204
Rp205
(I1
(I2
tp206
g26
I00
S'0v\x98m\xbb\xdf2@bj\xb7\xe8\xc1U\x15@'
p207
tp208
bsg31
g47
ssI26
(dp209
g13
I4
sg15
g16
(g17
(I0
tp210
g19
tp211
Rp212
(I1
(I2
tp213
g26
I00
S'\xa1\xc6\x9fD\x7f\xc39@\xf6\x12\x83\x9b\x1f\x9e\x11@'
p214
tp215
bsg31
g47
ssI27
(dp216
g13
I5
sg15
g16
(g17
(I0
tp217
g19
tp218
Rp219
(I1
(I2
tp220
g26
I00
S'/L\xa0\xb7\x18W7@h\xe9[\x96\x0e\xd0\x14\xc0'
p221
tp222
bsg31
g47
ssI28
(dp223
g13
I5
sg15
g16
(g17
(I0
tp224
g19
tp225
Rp226
(I1
(I2
tp227
g26
I00
S'\xa1\xff0\xa3\x07\x153@\x88&\xe2/K)\x06\xc0'
p228
tp229
bsg31
g47
ssI29
(dp230
g13
I5
sg15
g16
(g17
(I0
tp231
g19
tp232
Rp233
(I1
(I2
tp234
g26
I00
S'`^S\x98\x87b(@`\xd5J\xca\x8f\x98\r\xc0'
p235
tp236
bsg31
g47
ssI30
(dp237
g13
I5
sg15
g16
(g17
(I0
tp238
g19
tp239
Rp240
(I1
(I2
tp241
g26
I00
S'`^S\x98\x87b(@(h\x92G\xd5\xd3\x1a\xc0'
p242
tp243
bsg31
g47
ssI31
(dp244
g13
I5
sg15
g16
(g17
(I0
tp245
g19
tp246
Rp247
(I1
(I2
tp248
g26
I00
S'\xa1\xff0\xa3\x07\x153@\x94\xbf\xc6\x94w\x8b\x1e\xc0'
p249
tp250
bsg31
g47
ssI32
(dp251
g13
I6
sg15
g16
(g17
(I0
tp252
g19
tp253
Rp254
(I1
(I2
tp255
g26
I00
S"\xeb\xcd\x01\xa4\x88',@H\xcfN\xb4<\xb50\xc0"
p256
tp257
bsg31
g47
ssI33
(dp258
g13
I6
sg15
g16
(g17
(I0
tp259
g19
tp260
Rp261
(I1
(I2
tp262
g26
I00
S'\xcf4#{f\xa3#@|3h\xe9\xc4\x8c,\xc0'
p263
tp264
bsg31
g47
ssI34
(dp265
g13
I6
sg15
g16
(g17
(I0
tp266
g19
tp267
Rp268
(I1
(I2
tp269
g26
I00
S'\xb8OR4{o\x07@0_\x02\x10\x96h.\xc0'
p270
tp271
bsg31
g47
ssI35
(dp272
g13
I6
sg15
g16
(g17
(I0
tp273
g19
tp274
Rp275
(I1
(I2
tp276
g26
I00
S'\xb8OR4{o\x07@\xf6n\x9c`.62\xc0'
p277
tp278
bsg31
g47
ssI36
(dp279
g13
I6
sg15
g16
(g17
(I0
tp280
g19
tp281
Rp282
(I1
(I2
tp283
g26
I00
S'\xcf4#{f\xa3#@\xd2\x84\xe9\xf3\x16$3\xc0'
p284
tp285
bsg31
g47
ssI37
(dp286
g13
I7
sg15
g16
(g17
(I0
tp287
g19
tp288
Rp289
(I1
(I2
tp290
g26
I00
S'\x0e\x9e\xa2^D\x0cB@\xcb\xb3\xdd\r\xdf\xb5H@'
p291
tp292
bsg31
g47
ssI38
(dp293
g13
I7
sg15
g16
(g17
(I0
tp294
g19
tp295
Rp296
(I1
(I2
tp297
g26
I00
S'\x8e\xef\xd5\xa8w\xd6?@\x90\x0e\xab-L\xedI@'
p298
tp299
bsg31
g47
ssI39
(dp300
g13
I7
sg15
g16
(g17
(I0
tp301
g19
tp302
Rp303
(I1
(I2
tp304
g26
I00
S'\x1c\x9f\xce\xd1\xb3\xf28@\xa3\x83\x04\xe4WvI@'
p305
tp306
bsg31
g47
ssI40
(dp307
g13
I7
sg15
g16
(g17
(I0
tp308
g19
tp309
Rp310
(I1
(I2
tp311
g26
I00
S'\x1c\x9f\xce\xd1\xb3\xf28@\xf4\xe3\xb67f\xf5G@'
p312
tp313
bsg31
g47
ssI41
(dp314
g13
I7
sg15
g16
(g17
(I0
tp315
g19
tp316
Rp317
(I1
(I2
tp318
g26
I00
S'\x8e\xef\xd5\xa8w\xd6?@\x06Y\x10\xeeq~G@'
p319
tp320
bsg31
g47
ssI42
(dp321
g13
I8
sg15
g16
(g17
(I0
tp322
g19
tp323
Rp324
(I1
(I2
tp325
g26
I00
S"\x8e\x9c\xa8'B\x94<@\xd0~\xa7\xf3\x993B@"
p326
tp327
bsg31
g47
ssI43
(dp328
g13
I8
sg15
g16
(g17
(I0
tp329
g19
tp330
Rp331
(I1
(I2
tp332
g26
I00
S'\x00P9\x131R8@\x94\xd9t\x13\x07kC@'
p333
tp334
bsg31
g47
ssI44
(dp335
g13
I8
sg15
g16
(g17
(I0
tp336
g19
tp337
Rp338
(I1
(I2
tp339
g26
I00
S'\x8e\xff1<mn1@\xa6N\xce\xc9\x12\xf4B@'
p340
tp341
bsg31
g47
ssI45
(dp342
g13
I8
sg15
g16
(g17
(I0
tp343
g19
tp344
Rp345
(I1
(I2
tp346
g26
I00
S'\x8e\xff1<mn1@\xf8\xae\x80\x1d!sA@'
p347
tp348
bsg31
g47
ssI46
(dp349
g13
I8
sg15
g16
(g17
(I0
tp350
g19
tp351
Rp352
(I1
(I2
tp353
g26
I00
S'\x00P9\x131R8@\n$\xda\xd3,\xfc@@'
p354
tp355
bsg31
g47
ssI47
(dp356
g13
I9
sg15
g16
(g17
(I0
tp357
g19
tp358
Rp359
(I1
(I2
tp360
g26
I00
S'\xc28\x01IKJ5@\xdaL\x85\xa1[\x9d8@'
p361
tp362
bsg31
g47
ssI48
(dp363
g13
I9
sg15
g16
(g17
(I0
tp364
g19
tp365
Rp366
(I1
(I2
tp367
g26
I00
S'4\xec\x914:\x081@d\x02 \xe15\x0c;@'
p368
tp369
bsg31
g47
ssI49
(dp370
g13
I9
sg15
g16
(g17
(I0
tp371
g19
tp372
Rp373
(I1
(I2
tp374
g26
I00
S'\x867\x15\xbb\xecH$@\x88\xec\xd2MM\x1e:@'
p375
tp376
bsg31
g47
ssI50
(dp377
g13
I9
sg15
g16
(g17
(I0
tp378
g19
tp379
Rp380
(I1
(I2
tp381
g26
I00
S'\x867\x15\xbb\xecH$@+\xad7\xf5i\x1c7@'
p382
tp383
bsg31
g47
ssI51
(dp384
g13
I9
sg15
g16
(g17
(I0
tp385
g19
tp386
Rp387
(I1
(I2
tp388
g26
I00
S'4\xec\x914:\x081@P\x97\xeaa\x81.6@'
p389
tp390
bsg31
g47
ssI52
(dp391
g13
I10
sg15
g16
(g17
(I0
tp392
g19
tp393
Rp394
(I1
(I2
tp395
g26
I00
S"\xf8\xf4W\xec\nU*@\xcd\xf6\xc3;\xc6A'@"
p396
tp397
bsg31
g47
ssI53
(dp398
g13
I10
sg15
g16
(g17
(I0
tp399
g19
tp400
Rp401
(I1
(I2
tp402
g26
I00
S'\xdc[y\xc3\xe8\xd0!@\xe0a\xf9\xbaz\x1f,@'
p403
tp404
bsg31
g47
ssI54
(dp405
g13
I10
sg15
g16
(g17
(I0
tp406
g19
tp407
Rp408
(I1
(I2
tp409
g26
I00
S'\xe8\xeb\xaaU\x84%\x00@)6_\x94\xa9C*@'
p410
tp411
bsg31
g47
ssI55
(dp412
g13
I10
sg15
g16
(g17
(I0
tp413
g19
tp414
Rp415
(I1
(I2
tp416
g26
I00
S'\xe8\xeb\xaaU\x84%\x00@p\xb7(\xe3\xe2?$@'
p417
tp418
bsg31
g47
ssI56
(dp419
g13
I10
sg15
g16
(g17
(I0
tp420
g19
tp421
Rp422
(I1
(I2
tp423
g26
I00
S'\xdc[y\xc3\xe8\xd0!@\xb9\x8b\x8e\xbc\x11d"@'
p424
tp425
bsg31
g47
ssI57
(dp426
g13
I11
sg15
g16
(g17
(I0
tp427
g19
tp428
Rp429
(I1
(I2
tp430
g26
I00
S'\x06\xe4\x1fw\xf8\x06\x19@\x00\xae\xa7\x86\xc9\\\xa1\xbf'
p431
tp432
bsg31
g47
ssI58
(dp433
g13
I11
sg15
g16
(g17
(I0
tp434
g19
tp435
Rp436
(I1
(I2
tp437
g26
I00
S'@\xc7\x8a\x95\xd0\xfa\xff?\x98\r\xbb\xd6^1\x03@'
p438
tp439
bsg31
g47
ssI59
(dp440
g13
I11
sg15
g16
(g17
(I0
tp441
g19
tp442
Rp443
(I1
(I2
tp444
g26
I00
S'\xf4\x8f\xba6[\x90\x13\xc0p\xbd\xa4x4\x84\xf7?'
p445
tp446
bsg31
g47
ssI60
(dp447
g13
I11
sg15
g16
(g17
(I0
tp448
g19
tp449
Rp450
(I1
(I2
tp451
g26
I00
S'\xf4\x8f\xba6[\x90\x13\xc0`8\x0f\x11\x01\x9a\xf8\xbf'
p452
tp453
bsg31
g47
ssI61
(dp454
g13
I11
sg15
g16
(g17
(I0
tp455
g19
tp456
Rp457
(I1
(I2
tp458
g26
I00
S'@\xc7\x8a\x95\xd0\xfa\xff?\x08K\xf0"E\xbc\x03\xc0'
p459
tp460
bsg31
g47
ssI62
(dp461
g13
I12
sg15
g16
(g17
(I0
tp462
g19
tp463
Rp464
(I1
(I2
tp465
g26
I00
S'\xd0\xd6\xf1[~r\xfb\xbf\x84\x84\x86I\xd9v(\xc0'
p466
tp467
bsg31
g47
ssI63
(dp468
g13
I12
sg15
g16
(g17
(I0
tp469
g19
tp470
Rp471
(I1
(I2
tp472
g26
I00
S'\xf0\xa7\xb9\xe8\xe3\xe4\x17\xc0n\x19Q\xca$\x99#\xc0'
p473
tp474
bsg31
g47
ssI64
(dp475
g13
I12
sg15
g16
(g17
(I0
tp476
g19
tp477
Rp478
(I1
(I2
tp479
g26
I00
S'\xd8tk\xa2\xf9\xb9)\xc0&E\xeb\xf0\xf5t%\xc0'
p480
tp481
bsg31
g47
ssI65
(dp482
g13
I12
sg15
g16
(g17
(I0
tp483
g19
tp484
Rp485
(I1
(I2
tp486
g26
I00
S'\xd8tk\xa2\xf9\xb9)\xc0\xe0\xc3!\xa2\xbcx+\xc0'
p487
tp488
bsg31
g47
ssI66
(dp489
g13
I12
sg15
g16
(g17
(I0
tp490
g19
tp491
Rp492
(I1
(I2
tp493
g26
I00
S'\xf0\xa7\xb9\xe8\xe3\xe4\x17\xc0\x98\xef\xbb\xc8\x8dT-\xc0'
p494
tp495
bsg31
g47
ssI67
(dp496
g13
I13
sg15
g16
(g17
(I0
tp497
g19
tp498
Rp499
(I1
(I2
tp500
g26
I00
S'\xaf\xafW\x88T\xae:@\x92\xc5u\xb3\xd5\xdeP@'
p501
tp502
bsg31
g47
ssI68
(dp503
g13
I13
sg15
g16
(g17
(I0
tp504
g19
tp505
Rp506
(I1
(I2
tp507
g26
I00
S'!c\xe8sCl6@\xf4r\\C\x8czQ@'
p508
tp509
bsg31
g47
ssI69
(dp510
g13
I13
sg15
g16
(g17
(I0
tp511
g19
tp512
Rp513
(I1
(I2
tp514
g26
I00
S'`%\xc29\xff\x10/@}-\x89\x1e\x12?Q@'
p515
tp516
bsg31
g47
ssI70
(dp517
g13
I13
sg15
g16
(g17
(I0
tp518
g19
tp519
Rp520
(I1
(I2
tp521
g26
I00
S'`%\xc29\xff\x10/@\xa6]bH\x99~P@'
p522
tp523
bsg31
g47
ssI71
(dp524
g13
I13
sg15
g16
(g17
(I0
tp525
g19
tp526
Rp527
(I1
(I2
tp528
g26
I00
S'!c\xe8sCl6@/\x18\x8f#\x1fCP@'
p529
tp530
bsg31
g47
ssI72
(dp531
g13
I14
sg15
g16
(g17
(I0
tp532
g19
tp533
Rp534
(I1
(I2
tp535
g26
I00
S'\xee\xe8l#.\x033@U\xd0\xa2\xc0\xbecK@'
p536
tp537
bsg31
g47
ssI73
(dp538
g13
I14
sg15
g16
(g17
(I0
tp539
g19
tp540
Rp541
(I1
(I2
tp542
g26
I00
S'\xc08\xfb\x1d:\x82-@\x1a+p\xe0+\x9bL@'
p543
tp544
bsg31
g47
ssI74
(dp545
g13
I14
sg15
g16
(g17
(I0
tp546
g19
tp547
Rp548
(I1
(I2
tp549
g26
I00
S'\xbc/\xd9\xdfdu\x1f@-\xa0\xc9\x967$L@'
p550
tp551
bsg31
g47
ssI75
(dp552
g13
I14
sg15
g16
(g17
(I0
tp553
g19
tp554
Rp555
(I1
(I2
tp556
g26
I00
S'\xbc/\xd9\xdfdu\x1f@~\x00|\xeaE\xa3J@'
p557
tp558
bsg31
g47
ssI76
(dp559
g13
I14
sg15
g16
(g17
(I0
tp560
g19
tp561
Rp562
(I1
(I2
tp563
g26
I00
S'\xc08\xfb\x1d:\x82-@\x91u\xd5\xa0Q,J@'
p564
tp565
bsg31
g47
ssI77
(dp566
g13
I15
sg15
g16
(g17
(I0
tp567
g19
tp568
Rp569
(I1
(I2
tp570
g26
I00
S'\xc2.\xe1\xd1\xf0\x9f%@g\xf0\xec\xd0\xfd\xa8D@'
p571
tp572
bsg31
g47
ssI78
(dp573
g13
I15
sg15
g16
(g17
(I0
tp574
g19
tp575
Rp576
(I1
(I2
tp577
g26
I00
S'L+\x05R\x9d7\x1a@,K\xba\xf0j\xe0E@'
p578
tp579
bsg31
g47
ssI79
(dp580
g13
I15
sg15
g16
(g17
(I0
tp581
g19
tp582
Rp583
(I1
(I2
tp584
g26
I00
S'\x80g\x81\xa1 w\xd5\xbf>\xc0\x13\xa7viE@'
p585
tp586
bsg31
g47
ssI80
(dp587
g13
I15
sg15
g16
(g17
(I0
tp588
g19
tp589
Rp590
(I1
(I2
tp591
g26
I00
S'\x80g\x81\xa1 w\xd5\xbf\x90 \xc6\xfa\x84\xe8C@'
p592
tp593
bsg31
g47
ssI81
(dp594
g13
I15
sg15
g16
(g17
(I0
tp595
g19
tp596
Rp597
(I1
(I2
tp598
g26
I00
S'L+\x05R\x9d7\x1a@\xa2\x95\x1f\xb1\x90qC@'
p599
tp600
bsg31
g47
ssI82
(dp601
g13
I16
sg15
g16
(g17
(I0
tp602
g19
tp603
Rp604
(I1
(I2
tp605
g26
I00
S'\xe86\x82\x8f\x8b\xcb\x0c@\n0\x10\\#\x88=@'
p606
tp607
bsg31
g47
ssI83
(dp608
g13
I16
sg15
g16
(g17
(I0
tp609
g19
tp610
Rp611
(I1
(I2
tp612
g26
I00
S' \xb6\xe0O\xf4\x13\xe5\xbf\x93\xe5\xaa\x9b\xfd\xf6?@'
p613
tp614
bsg31
g47
ssI84
(dp615
g13
I16
sg15
g16
(g17
(I0
tp616
g19
tp617
Rp618
(I1
(I2
tp619
g26
I00
S'\x88X\x19\xe6\x8d1\x1e\xc0\xb8\xcf]\x08\x15\t?@'
p620
tp621
bsg31
g47
ssI85
(dp622
g13
I16
sg15
g16
(g17
(I0
tp623
g19
tp624
Rp625
(I1
(I2
tp626
g26
I00
S'\x88X\x19\xe6\x8d1\x1e\xc0Z\x90\xc2\xaf1\x07<@'
p627
tp628
bsg31
g47
ssI86
(dp629
g13
I16
sg15
g16
(g17
(I0
tp630
g19
tp631
Rp632
(I1
(I2
tp633
g26
I00
S' \xb6\xe0O\xf4\x13\xe5\xbf\x7fzu\x1cI\x19;@'
p634
tp635
bsg31
g47
ssI87
(dp636
g13
I17
sg15
g16
(g17
(I0
tp637
g19
tp638
Rp639
(I1
(I2
tp640
g26
I00
S'\x88\xc5b\x1d\xa9V\x0f\xc0\xb2\xba~\x0fJ\xd40@'
p641
tp642
bsg31
g47
ssI88
(dp643
g13
I17
sg15
g16
(g17
(I0
tp644
g19
tp645
Rp646
(I1
(I2
tp647
g26
I00
S'|J7p\xccY \xc0<p\x19O$C3@'
p648
tp649
bsg31
g47
ssI89
(dp650
g13
I17
sg15
g16
(g17
(I0
tp651
g19
tp652
Rp653
(I1
(I2
tp654
g26
I00
S'`\xebE\x1eT!.\xc0aZ\xcc\xbb;U2@'
p655
tp656
bsg31
g47
ssI90
(dp657
g13
I17
sg15
g16
(g17
(I0
tp658
g19
tp659
Rp660
(I1
(I2
tp661
g26
I00
S'`\xebE\x1eT!.\xc0\x086b\xc6\xb0\xa6.@'
p662
tp663
bsg31
g47
ssI91
(dp664
g13
I17
sg15
g16
(g17
(I0
tp665
g19
tp666
Rp667
(I1
(I2
tp668
g26
I00
S'|J7p\xccY \xc0P\n\xc8\x9f\xdf\xca,@'
p669
tp670
bsg31
g47
ssI92
(dp671
g13
I18
sg15
g16
(g17
(I0
tp672
g19
tp673
Rp674
(I1
(I2
tp675
g26
I00
S'\x04\x04\xbd\x96\xf8\xf4%\xc0\xa2\xe8\x1c\xadTj\x14@'
p676
tp677
bsg31
g47
ssI93
(dp678
g13
I18
sg15
g16
(g17
(I0
tp679
g19
tp680
Rp681
(I1
(I2
tp682
g26
I00
S' \x9d\x9b\xbf\x1ay.\xc0\xca\xbe\x87\xab\xbd%\x1e@'
p683
tp684
bsg31
g47
ssI94
(dp685
g13
I18
sg15
g16
(g17
(I0
tp686
g19
tp687
Rp688
(I1
(I2
tp689
g26
I00
S'\x02\x1f\xd56Q 6\xc0ZgS^\x1bn\x1a@'
p690
tp691
bsg31
g47
ssI95
(dp692
g13
I18
sg15
g16
(g17
(I0
tp693
g19
tp694
Rp695
(I1
(I2
tp696
g26
I00
S'\x02\x1f\xd56Q 6\xc0\xd0\xd3\xcc\xf7\x1b\xcd\x0c@'
p697
tp698
bsg31
g47
ssI96
(dp699
g13
I18
sg15
g16
(g17
(I0
tp700
g19
tp701
Rp702
(I1
(I2
tp703
g26
I00
S' \x9d\x9b\xbf\x1ay.\xc0\xf8$d]\xd7]\x05@'
p704
tp705
bsg31
g47
ssI97
(dp706
g13
I19
sg15
g16
(g17
(I0
tp707
g19
tp708
Rp709
(I1
(I2
tp710
g26
I00
S'fII\xb0\xa2\xa52\xc0\xbc\xec(\x85\x10e\x1e\xc0'
p711
tp712
bsg31
g47
ssI98
(dp713
g13
I19
sg15
g16
(g17
(I0
tp714
g19
tp715
Rp716
(I1
(I2
tp717
g26
I00
S'\xf6\x95\xb8\xc4\xb3\xe76\xc0\x90\x16\xbe\x86\xa7\xa9\x14\xc0'
p718
tp719
bsg31
g47
ssI99
(dp720
g13
I19
sg15
g16
(g17
(I0
tp721
g19
tp722
Rp723
(I1
(I2
tp724
g26
I00
S'f\xe6\xbf\x9bw\xcb=\xc0\x00n\xf2\xd3Ia\x18\xc0'
p725
tp726
bsg31
g47
ssI100
(dp727
g13
I19
sg15
g16
(g17
(I0
tp728
g19
tp729
Rp730
(I1
(I2
tp731
g26
I00
S'f\xe6\xbf\x9bw\xcb=\xc0\xba\xb5/\x9bk4"\xc0'
p732
tp733
bsg31
g47
ssI101
(dp734
g13
I19
sg15
g16
(g17
(I0
tp735
g19
tp736
Rp737
(I1
(I2
tp738
g26
I00
S'\xf6\x95\xb8\xc4\xb3\xe76\xc0p\xe1\xc9\xc1<\x10$\xc0'
p739
tp740
bsg31
g47
ssI102
(dp741
g13
I0
sg15
g16
(g17
(I0
tp742
g19
tp743
Rp744
(I1
(I2
tp745
g26
I00
S'\x94\x8d\xc4\xa4\xb8\xa5H@\x86\x9f\x95}\x02\xc0-@'
p746
tp747
bsg31
S'turbine'
p748
ssI103
(dp749
g13
I1
sg15
g16
(g17
(I0
tp750
g19
tp751
Rp752
(I1
(I2
tp753
g26
I00
S'SeD)u\nE@\xf0\x92\xa5\x1bG+\xf8?'
p754
tp755
bsg31
g748
ssI104
(dp756
g13
I2
sg15
g16
(g17
(I0
tp757
g19
tp758
Rp759
(I1
(I2
tp760
g26
I00
S'\x9d)\x15M\x1fUC@xKV\x8e\x8f\x8c?@'
p761
tp762
bsg31
g748
ssI105
(dp763
g13
I3
sg15
g16
(g17
(I0
tp764
g19
tp765
Rp766
(I1
(I2
tp767
g26
I00
S"\xfd\x15\xd1\x8a'\x87?@w\xcb\x1e\xaa\xda\xd23@"
p768
tp769
bsg31
g748
ssI106
(dp770
g13
I4
sg15
g16
(g17
(I0
tp771
g19
tp772
Rp773
(I1
(I2
tp774
g26
I00
S'<O\xe6%\x01\xdc7@\x1e\xe9\xed\x99\x88Y\x1b@'
p775
tp776
bsg31
g748
ssI107
(dp777
g13
I5
sg15
g16
(g17
(I0
tp778
g19
tp779
Rp780
(I1
(I2
tp781
g26
I00
S'<\x88w\x84\x89-1@h\xe9[\x96\x0e\xd0\x14\xc0'
p782
tp783
bsg31
g748
ssI108
(dp784
g13
I6
sg15
g16
(g17
(I0
tp785
g19
tp786
Rp787
(I1
(I2
tp788
g26
I00
S'\n\x8c`{\xd4\xa8\x1f@H\xcfN\xb4<\xb50\xc0'
p789
tp790
bsg31
g748
ssI109
(dp791
g13
I7
sg15
g16
(g17
(I0
tp792
g19
tp793
Rp794
(I1
(I2
tp795
g26
I00
S'(x\x1c\x8a\xf9\xee=@\xcb\xb3\xdd\r\xdf\xb5H@'
p796
tp797
bsg31
g748
ssI110
(dp798
g13
I8
sg15
g16
(g17
(I0
tp799
g19
tp800
Rp801
(I1
(I2
tp802
g26
I00
S'\x9b\xd8\x7f\xf4\xb2j6@\xd0~\xa7\xf3\x993B@'
p803
tp804
bsg31
g748
ssI111
(dp805
g13
I9
sg15
g16
(g17
(I0
tp806
g19
tp807
Rp808
(I1
(I2
tp809
g26
I00
S'\x9e\xe9\xb0+xA.@\xdaL\x85\xa1[\x9d8@'
p810
tp811
bsg31
g748
ssI112
(dp812
g13
I10
sg15
g16
(g17
(I0
tp813
g19
tp814
Rp815
(I1
(I2
tp816
g26
I00
S"$\xda\x0c\x0c\xd9\x03\x1c@\xcd\xf6\xc3;\xc6A'@"
p817
tp818
bsg31
g748
ssI113
(dp819
g13
I11
sg15
g16
(g17
(I0
tp820
g19
tp821
Rp822
(I1
(I2
tp823
g26
I00
S'\x00\x0f5\x9f\xea.\xb8?\x00\xae\xa7\x86\xc9\\\xa1\xbf'
p824
tp825
bsg31
g748
ssI114
(dp826
g13
I12
sg15
g16
(g17
(I0
tp827
g19
tp828
Rp829
(I1
(I2
tp830
g26
I00
S'\x80\x85\x9fc\xdc\x82\x1f\xc0\x84\x84\x86I\xd9v(\xc0'
p831
tp832
bsg31
g748
ssI115
(dp833
g13
I13
sg15
g16
(g17
(I0
tp834
g19
tp835
Rp836
(I1
(I2
tp837
g26
I00
S'\xbc\xeb.U\xc5\x844@\x92\xc5u\xb3\xd5\xdeP@'
p838
tp839
bsg31
g748
ssI116
(dp840
g13
I14
sg15
g16
(g17
(I0
tp841
g19
tp842
Rp843
(I1
(I2
tp844
g26
I00
S'\xf6I\x88\xe0=\xb3)@U\xd0\xa2\xc0\xbecK@'
p845
tp846
bsg31
g748
ssI117
(dp847
g13
I15
sg15
g16
(g17
(I0
tp848
g19
tp849
Rp850
(I1
(I2
tp851
g26
I00
S'\xbaM\x1f\xd7\xa4\x99\x12@g\xf0\xec\xd0\xfd\xa8D@'
p852
tp853
bsg31
g748
ssI118
(dp854
g13
I16
sg15
g16
(g17
(I0
tp855
g19
tp856
Rp857
(I1
(I2
tp858
g26
I00
S'\xb0\xe8\xc3\t\xee\x80\x04\xc0\n0\x10\\#\x88=@'
p859
tp860
bsg31
g748
ssI119
(dp861
g13
I17
sg15
g16
(g17
(I0
tp862
g19
tp863
Rp864
(I1
(I2
tp865
g26
I00
S'J9\xaa\xad\xc8($\xc0\xb2\xba~\x0fJ\xd40@'
p866
tp867
bsg31
g748
ssI120
(dp868
g13
I18
sg15
g16
(g17
(I0
tp869
g19
tp870
Rp871
(I1
(I2
tp872
g26
I00
S'\xf6E\x87~\x0b$1\xc0\xa2\xe8\x1c\xadTj\x14@'
p873
tp874
bsg31
g748
ssI121
(dp875
g13
I19
sg15
g16
(g17
(I0
tp876
g19
tp877
Rp878
(I1
(I2
tp879
g26
I00
S'Z\rr\xe31\xcf8\xc0\xbc\xec(\x85\x10e\x1e\xc0'
p880
tp881
bsg31
g748
sssS'graph'
p882
(dp883
sS'nodes'
p884
g0
(cnetworkx.classes.reportviews
NodeView
p885
g2
Ntp886
Rp887
(dp888
S'_nodes'
p889
g11
sbsS'_adj'
p890
(dp891
I0
(dp892
I2
(dp893
sI5
(dp894
sI6
(dp895
sI7
(dp896
sI8
(dp897
sI11
(dp898
sI22
(dp899
ssI1
(dp900
I32
(dp901
sI35
(dp902
sI36
(dp903
ssI2
(dp904
I0
g893
sI3
(dp905
sI6
(dp906
sI7
(dp907
sI8
(dp908
sI9
(dp909
sI16
(dp910
ssI3
(dp911
I2
g905
sI4
(dp912
sI12
(dp913
sI15
(dp914
sI16
(dp915
sI17
(dp916
sI18
(dp917
sI21
(dp918
ssI4
(dp919
I3
g912
sI5
(dp920
sI8
(dp921
sI9
(dp922
sI12
(dp923
sI15
(dp924
sI16
(dp925
sI17
(dp926
sI18
(dp927
sI52
(dp928
sI53
(dp929
sI22
(dp930
sI23
(dp931
sI56
(dp932
sI24
(dp933
sI21
(dp934
ssI5
(dp935
I0
g894
sI4
g920
sI56
(dp936
sI6
(dp937
sI7
(dp938
sI8
(dp939
sI9
(dp940
sI16
(dp941
sI17
(dp942
sI52
(dp943
sI53
(dp944
sI22
(dp945
sI23
(dp946
sI24
(dp947
sI20
(dp948
sI26
(dp949
sI21
(dp950
ssI6
(dp951
I0
g895
sI2
g906
sI5
g937
sI7
(dp952
sI8
(dp953
sI9
(dp954
sI52
(dp955
sI22
(dp956
sI23
(dp957
sI26
(dp958
ssI7
(dp959
I0
g896
sI2
g907
sI5
g938
sI6
g952
sI8
(dp960
sI11
(dp961
sI21
(dp962
ssI8
(dp963
I0
g897
sI2
g908
sI4
g921
sI5
g939
sI6
g953
sI7
g960
sI9
(dp964
sI17
(dp965
sI20
(dp966
sI21
(dp967
sI22
(dp968
sI23
(dp969
sI57
(dp970
sI26
(dp971
ssI9
(dp972
I2
g909
sI4
g922
sI5
g940
sI6
g954
sI8
g964
sI10
(dp973
sI29
(dp974
sI17
(dp975
sI58
(dp976
sI20
(dp977
sI21
(dp978
sI22
(dp979
sI23
(dp980
sI57
(dp981
sI26
(dp982
sI27
(dp983
sI28
(dp984
sI61
(dp985
ssI10
(dp986
I9
g973
sI11
(dp987
sI29
(dp988
sI58
(dp989
sI22
(dp990
sI57
(dp991
sI25
(dp992
sI26
(dp993
sI27
(dp994
sI28
(dp995
sI61
(dp996
sI31
(dp997
ssI11
(dp998
I0
g898
sI7
g961
sI10
g987
sI57
(dp999
sI27
(dp1000
sI28
(dp1001
sI31
(dp1002
ssI12
(dp1003
I3
g913
sI4
g923
sI41
(dp1004
sI13
(dp1005
sI16
(dp1006
sI17
(dp1007
sI18
(dp1008
ssI13
(dp1009
I37
(dp1010
sI40
(dp1011
sI41
(dp1012
sI42
(dp1013
sI43
(dp1014
sI12
g1005
sI46
(dp1015
sI82
(dp1016
sI14
(dp1017
ssI14
(dp1018
I83
(dp1019
sI82
(dp1020
sI37
(dp1021
sI40
(dp1022
sI41
(dp1023
sI42
(dp1024
sI13
g1017
sI46
(dp1025
sI15
(dp1026
sI48
(dp1027
sI49
(dp1028
sI18
(dp1029
sI19
(dp1030
sI86
(dp1031
sI47
(dp1032
ssI15
(dp1033
I82
(dp1034
sI16
(dp1035
sI83
(dp1036
sI3
g914
sI4
g924
sI51
(dp1037
sI49
(dp1038
sI41
(dp1039
sI42
(dp1040
sI45
(dp1041
sI14
g1026
sI47
(dp1042
sI48
(dp1043
sI17
(dp1044
sI18
(dp1045
sI19
(dp1046
sI46
(dp1047
sI86
(dp1048
ssI16
(dp1049
I51
(dp1050
sI2
g910
sI3
g915
sI4
g925
sI5
g941
sI12
g1006
sI82
(dp1051
sI15
g1035
sI48
(dp1052
sI17
(dp1053
sI18
(dp1054
sI19
(dp1055
sI47
(dp1056
ssI17
(dp1057
I3
g916
sI4
g926
sI5
g942
sI8
g965
sI9
g975
sI42
(dp1058
sI12
g1007
sI46
(dp1059
sI15
g1044
sI16
g1053
sI18
(dp1060
sI21
(dp1061
sI22
(dp1062
sI23
(dp1063
sI24
(dp1064
ssI18
(dp1065
I48
(dp1066
sI3
g917
sI4
g927
sI51
(dp1067
sI42
(dp1068
sI12
g1008
sI45
(dp1069
sI14
g1029
sI15
g1045
sI16
g1054
sI17
g1060
sI19
(dp1070
sI46
(dp1071
sI47
(dp1072
ssI19
(dp1073
I91
(dp1074
sI42
(dp1075
sI87
(dp1076
sI45
(dp1077
sI14
g1030
sI47
(dp1078
sI16
g1055
sI88
(dp1079
sI18
g1070
sI51
(dp1080
sI52
(dp1081
sI46
(dp1082
sI54
(dp1083
sI23
(dp1084
sI24
(dp1085
sI20
(dp1086
sI15
g1046
sI53
(dp1087
ssI20
(dp1088
I51
(dp1089
sI5
g948
sI8
g966
sI9
g977
sI87
(dp1090
sI45
(dp1091
sI46
(dp1092
sI47
(dp1093
sI56
(dp1094
sI50
(dp1095
sI19
g1086
sI52
(dp1096
sI53
(dp1097
sI54
(dp1098
sI23
(dp1099
sI24
(dp1100
sI88
(dp1101
sI22
(dp1102
sI91
(dp1103
sI21
(dp1104
ssI21
(dp1105
I3
g918
sI4
g934
sI5
g950
sI7
g962
sI8
g967
sI9
g978
sI87
(dp1106
sI22
(dp1107
sI17
g1061
sI20
g1104
sI53
(dp1108
sI54
(dp1109
sI23
(dp1110
sI24
(dp1111
sI52
(dp1112
sI56
(dp1113
ssI22
(dp1114
I0
g899
sI4
g930
sI5
g945
sI6
g956
sI8
g968
sI9
g979
sI10
g990
sI17
g1062
sI51
(dp1115
sI20
g1102
sI21
g1107
sI23
(dp1116
sI26
(dp1117
sI27
(dp1118
sI28
(dp1119
sI29
(dp1120
ssI23
(dp1121
I51
(dp1122
sI4
g931
sI5
g946
sI6
g957
sI8
g969
sI9
g980
sI47
(dp1123
sI17
g1063
sI50
(dp1124
sI19
g1084
sI20
g1099
sI21
g1110
sI22
g1116
sI56
(dp1125
sI24
(dp1126
sI52
(dp1127
sI92
(dp1128
sI53
(dp1129
ssI24
(dp1130
I96
(dp1131
sI51
(dp1132
sI25
(dp1133
sI4
g933
sI5
g947
sI29
(dp1134
sI47
(dp1135
sI17
g1064
sI50
(dp1136
sI19
g1085
sI20
g1100
sI21
g1111
sI23
g1126
sI56
(dp1137
sI57
(dp1138
sI58
(dp1139
sI59
(dp1140
sI92
(dp1141
sI93
(dp1142
sI52
(dp1143
ssI25
(dp1144
I96
(dp1145
sI58
(dp1146
sI27
(dp1147
sI28
(dp1148
sI10
g992
sI29
(dp1149
sI61
(dp1150
sI56
(dp1151
sI51
(dp1152
sI52
(dp1153
sI55
(dp1154
sI24
g1133
sI57
(dp1155
sI26
(dp1156
sI59
(dp1157
sI92
(dp1158
sI93
(dp1159
ssI26
(dp1160
I5
g949
sI6
g958
sI8
g971
sI9
g982
sI10
g993
sI28
(dp1161
sI29
(dp1162
sI22
g1117
sI57
(dp1163
sI25
g1156
sI58
(dp1164
sI27
(dp1165
sI92
(dp1166
sI61
(dp1167
ssI27
(dp1168
I32
(dp1169
sI33
(dp1170
sI9
g983
sI10
g994
sI11
g1000
sI22
g1118
sI56
(dp1171
sI25
g1147
sI26
g1165
sI28
(dp1172
sI31
(dp1173
ssI28
(dp1174
I97
(dp1175
sI9
g984
sI10
g995
sI11
g1001
sI29
(dp1176
sI58
(dp1177
sI52
(dp1178
sI22
g1119
sI57
(dp1179
sI56
(dp1180
sI25
g1148
sI26
g1161
sI27
g1172
sI61
(dp1181
sI55
(dp1182
ssI29
(dp1183
I64
(dp1184
sI33
(dp1185
sI34
(dp1186
sI101
(dp1187
sI97
(dp1188
sI9
g974
sI10
g988
sI98
(dp1189
sI56
(dp1190
sI30
(dp1191
sI52
(dp1192
sI57
(dp1193
sI22
g1120
sI55
(dp1194
sI24
g1134
sI25
g1149
sI26
g1162
sI28
g1176
sI61
(dp1195
sI62
(dp1196
sI63
(dp1197
ssI30
(dp1198
I32
(dp1199
sI33
(dp1200
sI34
(dp1201
sI101
(dp1202
sI97
(dp1203
sI64
(dp1204
sI66
(dp1205
sI61
(dp1206
sI56
(dp1207
sI57
(dp1208
sI98
(dp1209
sI31
(dp1210
sI60
(dp1211
sI29
g1191
sI62
(dp1212
sI63
(dp1213
ssI31
(dp1214
I32
(dp1215
sI33
(dp1216
sI34
(dp1217
sI97
(dp1218
sI10
g997
sI11
g1002
sI66
(dp1219
sI62
(dp1220
sI27
g1173
sI30
g1210
sI63
(dp1221
ssI32
(dp1222
I1
g901
sI36
(dp1223
sI33
(dp1224
sI57
(dp1225
sI27
g1169
sI61
(dp1226
sI30
g1199
sI31
g1215
ssI33
(dp1227
I32
g1224
sI34
(dp1228
sI63
(dp1229
sI66
(dp1230
sI61
(dp1231
sI62
(dp1232
sI57
(dp1233
sI27
g1170
sI60
(dp1234
sI29
g1185
sI30
g1200
sI31
g1216
ssI34
(dp1235
I33
g1228
sI66
(dp1236
sI35
(dp1237
sI61
(dp1238
sI62
(dp1239
sI57
(dp1240
sI60
(dp1241
sI29
g1186
sI30
g1201
sI31
g1217
ssI35
(dp1242
I1
g902
sI34
g1237
sI36
(dp1243
sI65
(dp1244
sI66
(dp1245
sI100
(dp1246
sI60
(dp1247
sI61
(dp1248
sI62
(dp1249
ssI36
(dp1250
I32
g1223
sI1
g903
sI35
g1243
ssI37
(dp1251
I38
(dp1252
sI71
(dp1253
sI41
(dp1254
sI42
(dp1255
sI43
(dp1256
sI44
(dp1257
sI13
g1010
sI14
g1021
ssI38
(dp1258
I67
(dp1259
sI37
g1252
sI70
(dp1260
sI71
(dp1261
sI72
(dp1262
sI73
(dp1263
sI39
(dp1264
sI76
(dp1265
ssI39
(dp1266
I67
(dp1267
sI38
g1264
sI70
(dp1268
sI71
(dp1269
sI40
(dp1270
sI76
(dp1271
sI75
(dp1272
sI44
(dp1273
sI77
(dp1274
sI78
(dp1275
sI79
(dp1276
sI72
(dp1277
sI43
(dp1278
ssI40
(dp1279
I75
(dp1280
sI39
g1270
sI72
(dp1281
sI41
(dp1282
sI42
(dp1283
sI43
(dp1284
sI76
(dp1285
sI13
g1011
sI14
g1022
sI77
(dp1286
sI81
(dp1287
sI78
(dp1288
sI79
(dp1289
sI44
(dp1290
ssI41
(dp1291
I37
g1254
sI77
(dp1292
sI40
g1282
sI44
(dp1293
sI42
(dp1294
sI43
(dp1295
sI12
g1004
sI13
g1012
sI14
g1023
sI15
g1039
sI81
(dp1296
sI78
(dp1297
ssI42
(dp1298
I37
g1255
sI40
g1283
sI41
g1294
sI43
(dp1299
sI76
(dp1300
sI13
g1013
sI14
g1024
sI15
g1040
sI48
(dp1301
sI17
g1058
sI18
g1068
sI19
g1075
sI46
(dp1302
sI47
(dp1303
ssI43
(dp1304
I37
g1256
sI39
g1278
sI40
g1284
sI41
g1295
sI42
g1299
sI75
(dp1305
sI76
(dp1306
sI13
g1014
sI78
(dp1307
sI77
(dp1308
sI81
(dp1309
sI72
(dp1310
sI44
(dp1311
ssI44
(dp1312
I43
g1311
sI37
g1257
sI39
g1273
sI40
g1290
sI41
g1293
sI75
(dp1313
sI76
(dp1314
sI77
(dp1315
sI78
(dp1316
sI45
(dp1317
sI48
(dp1318
sI81
(dp1319
sI82
(dp1320
sI83
(dp1321
sI84
(dp1322
sI72
(dp1323
sI49
(dp1324
ssI45
(dp1325
I48
(dp1326
sI83
(dp1327
sI81
(dp1328
sI44
g1317
sI82
(dp1329
sI77
(dp1330
sI15
g1041
sI80
(dp1331
sI49
(dp1332
sI18
g1069
sI19
g1077
sI20
g1091
sI46
(dp1333
sI86
(dp1334
sI84
(dp1335
sI47
(dp1336
ssI46
(dp1337
I45
g1333
sI82
(dp1338
sI49
(dp1339
sI42
g1302
sI83
(dp1340
sI13
g1015
sI14
g1025
sI15
g1047
sI48
(dp1341
sI17
g1059
sI18
g1071
sI19
g1082
sI20
g1092
sI86
(dp1342
sI47
(dp1343
ssI47
(dp1344
I51
(dp1345
sI48
(dp1346
sI42
g1303
sI45
g1336
sI14
g1032
sI15
g1042
sI16
g1056
sI81
(dp1347
sI18
g1072
sI19
g1078
sI20
g1093
sI46
g1343
sI54
(dp1348
sI23
g1123
sI24
g1135
sI52
(dp1349
sI53
(dp1350
ssI48
(dp1351
I80
(dp1352
sI82
(dp1353
sI81
(dp1354
sI77
(dp1355
sI42
g1301
sI44
g1318
sI45
g1326
sI14
g1027
sI15
g1043
sI16
g1052
sI49
(dp1356
sI18
g1066
sI83
(dp1357
sI46
g1341
sI86
(dp1358
sI47
g1346
ssI49
(dp1359
I80
(dp1360
sI82
(dp1361
sI86
(dp1362
sI77
(dp1363
sI44
g1324
sI45
g1332
sI46
g1339
sI15
g1038
sI48
g1356
sI81
(dp1364
sI50
(dp1365
sI83
(dp1366
sI14
g1028
sI54
(dp1367
sI87
(dp1368
sI88
(dp1369
sI89
(dp1370
sI53
(dp1371
ssI50
(dp1372
I86
(dp1373
sI81
(dp1374
sI87
(dp1375
sI49
g1365
sI82
(dp1376
sI51
(dp1377
sI20
g1095
sI85
(dp1378
sI54
(dp1379
sI23
g1124
sI24
g1136
sI89
(dp1380
sI91
(dp1381
sI52
(dp1382
sI88
(dp1383
sI53
(dp1384
ssI51
(dp1385
I91
(dp1386
sI54
(dp1387
sI87
(dp1388
sI50
g1377
sI15
g1037
sI16
g1050
sI88
(dp1389
sI18
g1067
sI19
g1080
sI20
g1089
sI53
(dp1390
sI22
g1115
sI23
g1122
sI24
g1132
sI25
g1152
sI47
g1345
sI52
(dp1391
ssI52
(dp1392
I51
g1391
sI4
g928
sI5
g943
sI6
g955
sI57
(dp1393
sI47
g1349
sI56
(dp1394
sI50
g1382
sI19
g1081
sI20
g1096
sI21
g1112
sI86
(dp1395
sI23
g1127
sI24
g1143
sI25
g1153
sI58
(dp1396
sI28
g1178
sI29
g1192
sI53
(dp1397
ssI53
(dp1398
I51
g1390
sI4
g929
sI5
g944
sI87
(dp1399
sI82
(dp1400
sI47
g1350
sI49
g1371
sI50
g1384
sI19
g1087
sI20
g1097
sI21
g1108
sI54
(dp1401
sI23
g1129
sI88
(dp1402
sI52
g1397
sI91
(dp1403
sI86
(dp1404
sI85
(dp1405
ssI54
(dp1406
I51
g1387
sI59
(dp1407
sI55
(dp1408
sI94
(dp1409
sI82
(dp1410
sI47
g1348
sI49
g1367
sI50
g1379
sI19
g1083
sI20
g1098
sI21
g1109
sI86
(dp1411
sI87
(dp1412
sI58
(dp1413
sI91
(dp1414
sI92
(dp1415
sI93
(dp1416
sI85
(dp1417
sI53
g1401
ssI55
(dp1418
I96
(dp1419
sI59
(dp1420
sI86
(dp1421
sI92
(dp1422
sI87
(dp1423
sI93
(dp1424
sI90
(dp1425
sI54
g1408
sI57
(dp1426
sI56
(dp1427
sI25
g1154
sI58
(dp1428
sI91
(dp1429
sI28
g1182
sI29
g1194
sI94
(dp1430
ssI56
(dp1431
I96
(dp1432
sI59
(dp1433
sI4
g932
sI5
g936
sI92
(dp1434
sI57
(dp1435
sI55
g1427
sI93
(dp1436
sI20
g1094
sI21
g1113
sI23
g1125
sI24
g1137
sI25
g1151
sI58
(dp1437
sI27
g1171
sI28
g1180
sI29
g1190
sI30
g1207
sI52
g1394
ssI57
(dp1438
I32
g1225
sI33
g1233
sI34
g1240
sI8
g970
sI9
g981
sI10
g991
sI11
g999
sI61
(dp1439
sI56
g1435
sI58
(dp1440
sI52
g1393
sI62
(dp1441
sI55
g1426
sI24
g1138
sI25
g1155
sI26
g1163
sI91
(dp1442
sI28
g1179
sI29
g1193
sI30
g1208
sI63
(dp1443
ssI58
(dp1444
I96
(dp1445
sI59
(dp1446
sI9
g976
sI10
g989
sI87
(dp1447
sI93
(dp1448
sI92
(dp1449
sI56
g1437
sI52
g1396
sI57
g1440
sI54
g1413
sI55
g1428
sI24
g1139
sI25
g1146
sI26
g1164
sI91
(dp1450
sI28
g1177
sI90
(dp1451
ssI59
(dp1452
I64
(dp1453
sI97
(dp1454
sI98
(dp1455
sI99
(dp1456
sI96
(dp1457
sI87
(dp1458
sI60
(dp1459
sI56
g1433
sI54
g1407
sI55
g1420
sI24
g1140
sI25
g1157
sI58
g1446
sI91
(dp1460
sI92
(dp1461
sI90
(dp1462
sI63
(dp1463
ssI60
(dp1464
I64
(dp1465
sI33
g1234
sI34
g1241
sI35
g1247
sI101
(dp1466
sI97
(dp1467
sI96
(dp1468
sI98
(dp1469
sI63
(dp1470
sI91
(dp1471
sI99
(dp1472
sI62
(dp1473
sI59
g1459
sI92
(dp1474
sI61
(dp1475
sI30
g1211
sI95
(dp1476
ssI61
(dp1477
I32
g1226
sI33
g1231
sI34
g1238
sI35
g1248
sI101
(dp1478
sI97
(dp1479
sI64
(dp1480
sI9
g985
sI10
g996
sI98
(dp1481
sI60
g1475
sI62
(dp1482
sI57
g1439
sI25
g1150
sI26
g1167
sI28
g1181
sI29
g1195
sI30
g1206
sI63
(dp1483
ssI62
(dp1484
I96
(dp1485
sI33
g1232
sI34
g1239
sI35
g1249
sI66
(dp1486
sI61
g1482
sI57
g1441
sI63
(dp1487
sI60
g1473
sI29
g1196
sI30
g1212
sI31
g1220
ssI63
(dp1488
I64
(dp1489
sI33
g1229
sI98
(dp1490
sI101
(dp1491
sI97
(dp1492
sI92
(dp1493
sI95
(dp1494
sI96
(dp1495
sI61
g1483
sI62
g1487
sI57
g1443
sI59
g1463
sI60
g1470
sI29
g1197
sI30
g1213
sI31
g1221
ssI64
(dp1496
I96
(dp1497
sI65
(dp1498
sI98
(dp1499
sI101
(dp1500
sI97
(dp1501
sI92
(dp1502
sI95
(dp1503
sI61
g1480
sI59
g1453
sI60
g1465
sI29
g1184
sI30
g1204
sI63
g1489
ssI65
(dp1504
I64
g1498
sI96
(dp1505
sI66
(dp1506
sI35
g1244
sI100
(dp1507
sI101
(dp1508
sI97
(dp1509
ssI66
(dp1510
I33
g1230
sI34
g1236
sI35
g1245
sI65
g1506
sI30
g1205
sI62
g1486
sI31
g1219
ssI67
(dp1511
I68
(dp1512
sI38
g1259
sI71
(dp1513
sI72
(dp1514
sI73
(dp1515
sI74
(dp1516
sI39
g1267
ssI68
(dp1517
I67
g1512
sI69
(dp1518
ssI69
(dp1519
I73
(dp1520
sI74
(dp1521
sI68
g1518
sI70
(dp1522
ssI70
(dp1523
I69
g1522
sI38
g1260
sI71
(dp1524
sI72
(dp1525
sI73
(dp1526
sI74
(dp1527
sI39
g1268
ssI71
(dp1528
I67
g1513
sI37
g1253
sI70
g1524
sI39
g1269
sI72
(dp1529
sI73
(dp1530
sI74
(dp1531
sI38
g1261
ssI72
(dp1532
I67
g1514
sI70
g1525
sI38
g1262
sI39
g1277
sI40
g1281
sI76
(dp1533
sI43
g1310
sI44
g1323
sI77
(dp1534
sI78
(dp1535
sI79
(dp1536
sI73
(dp1537
sI71
g1529
ssI73
(dp1538
I67
g1515
sI69
g1520
sI70
g1526
sI71
g1530
sI72
g1537
sI74
(dp1539
sI38
g1263
ssI74
(dp1540
I67
g1516
sI69
g1521
sI70
g1527
sI71
g1531
sI73
g1539
sI75
(dp1541
sI78
(dp1542
sI79
(dp1543
ssI75
(dp1544
I39
g1272
sI40
g1280
sI44
g1313
sI74
g1541
sI43
g1305
sI76
(dp1545
sI77
(dp1546
sI78
(dp1547
sI79
(dp1548
ssI76
(dp1549
I75
g1545
sI38
g1265
sI39
g1271
sI40
g1285
sI42
g1300
sI43
g1306
sI44
g1314
sI77
(dp1550
sI78
(dp1551
sI79
(dp1552
sI72
g1533
ssI77
(dp1553
I75
g1546
sI81
(dp1554
sI39
g1274
sI40
g1286
sI41
g1292
sI43
g1308
sI44
g1315
sI45
g1330
sI78
(dp1555
sI48
g1355
sI49
g1363
sI82
(dp1556
sI83
(dp1557
sI76
g1550
sI72
g1534
ssI78
(dp1558
I75
g1547
sI39
g1275
sI40
g1288
sI41
g1297
sI74
g1542
sI43
g1307
sI44
g1316
sI77
g1555
sI79
(dp1559
sI76
g1551
sI72
g1535
ssI79
(dp1560
I39
g1276
sI40
g1289
sI74
g1543
sI75
g1548
sI76
g1552
sI78
g1559
sI80
(dp1561
sI72
g1536
sI83
(dp1562
sI84
(dp1563
ssI80
(dp1564
I81
(dp1565
sI45
g1331
sI79
g1561
sI48
g1352
sI49
g1360
sI82
(dp1566
sI83
(dp1567
sI84
(dp1568
ssI81
(dp1569
I80
g1565
sI82
(dp1570
sI40
g1287
sI41
g1296
sI43
g1309
sI44
g1319
sI45
g1328
sI77
g1554
sI47
g1347
sI48
g1354
sI49
g1364
sI50
g1374
sI83
(dp1571
sI84
(dp1572
ssI82
(dp1573
I48
g1353
sI86
(dp1574
sI81
g1570
sI77
g1556
sI80
g1566
sI44
g1320
sI45
g1329
sI14
g1020
sI13
g1016
sI16
g1051
sI49
g1361
sI50
g1376
sI83
(dp1575
sI46
g1338
sI54
g1410
sI87
(dp1576
sI88
(dp1577
sI89
(dp1578
sI15
g1034
sI53
g1400
ssI83
(dp1579
I80
g1567
sI81
g1571
sI77
g1557
sI44
g1321
sI45
g1327
sI46
g1340
sI15
g1036
sI48
g1357
sI49
g1366
sI82
g1575
sI84
(dp1580
sI14
g1019
sI79
g1562
ssI84
(dp1581
I44
g1322
sI45
g1335
sI79
g1563
sI80
g1568
sI81
g1572
sI83
g1580
sI85
(dp1582
sI88
(dp1583
sI89
(dp1584
ssI85
(dp1585
I54
g1417
sI50
g1378
sI84
g1582
sI53
g1405
sI86
(dp1586
sI87
(dp1587
sI88
(dp1588
sI89
(dp1589
ssI86
(dp1590
I82
g1574
sI87
(dp1591
sI45
g1334
sI46
g1342
sI15
g1048
sI48
g1358
sI49
g1362
sI50
g1373
sI52
g1395
sI14
g1031
sI54
g1411
sI55
g1421
sI88
(dp1592
sI89
(dp1593
sI85
g1586
sI53
g1404
ssI87
(dp1594
I51
g1388
sI91
(dp1595
sI86
g1591
sI82
g1576
sI49
g1368
sI50
g1375
sI19
g1076
sI20
g1090
sI21
g1106
sI54
g1412
sI55
g1423
sI88
(dp1596
sI58
g1447
sI59
g1458
sI92
(dp1597
sI93
(dp1598
sI85
g1587
sI53
g1399
ssI88
(dp1599
I51
g1389
sI82
g1577
sI89
(dp1600
sI49
g1369
sI50
g1383
sI19
g1079
sI20
g1101
sI53
g1402
sI86
g1592
sI87
g1596
sI84
g1583
sI85
g1588
ssI89
(dp1601
I82
g1578
sI49
g1370
sI50
g1380
sI84
g1584
sI85
g1589
sI86
g1593
sI88
g1600
sI90
(dp1602
sI93
(dp1603
sI94
(dp1604
ssI90
(dp1605
I59
g1462
sI55
g1425
sI89
g1602
sI58
g1451
sI91
(dp1606
sI92
(dp1607
sI93
(dp1608
sI94
(dp1609
ssI91
(dp1610
I19
g1074
sI92
(dp1611
sI87
g1595
sI93
(dp1612
sI50
g1381
sI51
g1386
sI20
g1103
sI53
g1403
sI54
g1414
sI55
g1429
sI57
g1442
sI58
g1450
sI59
g1460
sI60
g1471
sI90
g1606
sI94
(dp1613
ssI92
(dp1614
I64
g1502
sI97
(dp1615
sI98
(dp1616
sI87
g1597
sI96
(dp1617
sI23
g1128
sI93
(dp1618
sI56
g1434
sI91
g1611
sI99
(dp1619
sI90
g1607
sI54
g1415
sI55
g1422
sI24
g1141
sI25
g1158
sI26
g1166
sI59
g1461
sI60
g1474
sI58
g1449
sI63
g1493
ssI93
(dp1620
I87
g1598
sI89
g1603
sI56
g1436
sI54
g1416
sI55
g1424
sI24
g1142
sI25
g1159
sI58
g1448
sI91
g1612
sI92
g1618
sI90
g1608
sI94
(dp1621
ssI94
(dp1622
I98
(dp1623
sI99
(dp1624
sI54
g1409
sI55
g1430
sI89
g1604
sI90
g1609
sI91
g1613
sI93
g1621
sI95
(dp1625
ssI95
(dp1626
I64
g1503
sI97
(dp1627
sI98
(dp1628
sI99
(dp1629
sI96
(dp1630
sI60
g1476
sI94
g1625
sI63
g1494
ssI96
(dp1631
I64
g1497
sI65
g1505
sI98
(dp1632
sI99
(dp1633
sI97
(dp1634
sI92
g1617
sI95
g1630
sI56
g1432
sI55
g1419
sI24
g1131
sI25
g1145
sI58
g1445
sI59
g1457
sI60
g1468
sI62
g1485
sI63
g1495
ssI97
(dp1635
I64
g1501
sI65
g1509
sI98
(dp1636
sI101
(dp1637
sI96
g1634
sI28
g1175
sI95
g1627
sI63
g1492
sI61
g1479
sI92
g1615
sI59
g1454
sI60
g1467
sI29
g1188
sI30
g1203
sI31
g1218
ssI98
(dp1638
I64
g1499
sI96
g1632
sI99
(dp1639
sI97
g1636
sI92
g1616
sI95
g1628
sI61
g1481
sI94
g1623
sI59
g1455
sI60
g1469
sI29
g1189
sI30
g1209
sI63
g1490
ssI99
(dp1640
I96
g1633
sI98
g1639
sI100
(dp1641
sI60
g1472
sI59
g1456
sI92
g1619
sI94
g1624
sI95
g1629
ssI100
(dp1642
I99
g1641
sI65
g1507
sI35
g1246
sI101
(dp1643
ssI101
(dp1644
I64
g1500
sI65
g1508
sI100
g1643
sI97
g1637
sI61
g1478
sI60
g1466
sI29
g1187
sI30
g1202
sI63
g1491
ssI102
(dp1645
sI103
(dp1646
sI104
(dp1647
sI105
(dp1648
sI106
(dp1649
sI107
(dp1650
sI108
(dp1651
sI109
(dp1652
sI110
(dp1653
sI111
(dp1654
sI112
(dp1655
sI113
(dp1656
sI114
(dp1657
sI115
(dp1658
sI116
(dp1659
sI117
(dp1660
sI118
(dp1661
sI119
(dp1662
sI120
(dp1663
sI121
(dp1664
ssS'adjlist_outer_dict_factory'
p1665
g7
sb.