ccopy_reg
_reconstructor
p0
(cnetworkx.classes.graph
Graph
p1
c__builtin__
object
p2
Ntp3
Rp4
(dp5
S'adjlist_inner_dict_factory'
p6
c__builtin__
dict
p7
sS'node_dict_factory'
p8
g7
sS'edge_attr_dict_factory'
p9
g7
sS'_node'
p10
(dp11
I0
(dp12
S'related_to'
p13
S'NaN'
p14
sS'pos'
p15
cnumpy.core.multiarray
_reconstruct
p16
(cnumpy
ndarray
p17
(I0
tp18
S'b'
p19
tp20
Rp21
(I1
(I2
tp22
cnumpy
dtype
p23
(S'f8'
p24
I0
I1
tp25
Rp26
(I3
S'<'
p27
NNNI-1
I-1
I0
tp28
bI00
S'\xb6w\\\x07NnQ@\xda\xeb\r\xf5#&+@'
p29
tp30
bsS'description'
p31
S'corner'
p32
ssI1
(dp33
g13
g14
sg15
g16
(g17
(I0
tp34
g19
tp35
Rp36
(I1
(I2
tp37
g26
I00
S'dt\x0bF\xb3\xd2\x13\xc0\xd0\xf4\x17m%\xe5=\xc0'
p38
tp39
bsg31
g32
ssI2
(dp40
g13
I0
sg15
g16
(g17
(I0
tp41
g19
tp42
Rp43
(I1
(I2
tp44
g26
I00
S'P\xbf\xf2\xd9\x9f\xd1G@\x8bx\xc6D\xc7A9@'
p45
tp46
bsg31
S'countor_point'
p47
ssI3
(dp48
g13
I0
sg15
g16
(g17
(I0
tp49
g19
tp50
Rp51
(I1
(I2
tp52
g26
I00
S'\xda\xa5}\xcd\x1b\rE@4\xc9\xb8<d[;@'
p53
tp54
bsg31
g47
ssI4
(dp55
g13
I0
sg15
g16
(g17
(I0
tp56
g19
tp57
Rp58
(I1
(I2
tp59
g26
I00
S'c\x8c\x08\xc1\x97HB@\x8bx\xc6D\xc7A9@'
p60
tp61
bsg31
g47
ssI5
(dp62
g13
I0
sg15
g16
(g17
(I0
tp63
g19
tp64
Rp65
(I1
(I2
tp66
g26
I00
S"\xda\xa5}\xcd\x1b\rE@\xe2'\xd4L*(7@"
p67
tp68
bsg31
g47
ssI6
(dp69
g13
I1
sg15
g16
(g17
(I0
tp70
g19
tp71
Rp72
(I1
(I2
tp73
g26
I00
S'\xe6\xd9p\xdf\xa6\xf5B@\xc1\x80\xc0>\xe8\x99!@'
p74
tp75
bsg31
g47
ssI7
(dp76
g13
I1
sg15
g16
(g17
(I0
tp77
g19
tp78
Rp79
(I1
(I2
tp80
g26
I00
S'p\xc0\xfb\xd2"1@@\x13"\xa5."\xcd%@'
p81
tp82
bsg31
g47
ssI8
(dp83
g13
I1
sg15
g16
(g17
(I0
tp84
g19
tp85
Rp86
(I1
(I2
tp87
g26
I00
S'\xf1M\r\x8d=\xd9:@\xc1\x80\xc0>\xe8\x99!@'
p88
tp89
bsg31
g47
ssI9
(dp90
g13
I1
sg15
g16
(g17
(I0
tp91
g19
tp92
Rp93
(I1
(I2
tp94
g26
I00
S'p\xc0\xfb\xd2"1@@\xde\xbe\xb7\x9d\\\xcd\x1a@'
p95
tp96
bsg31
g47
ssI10
(dp97
g13
I2
sg15
g16
(g17
(I0
tp98
g19
tp99
Rp100
(I1
(I2
tp101
g26
I00
S'\xd4\xa2\x91\xd4f\xa8@@U\xcb\xf1\xcd\xef\xe4F@'
p102
tp103
bsg31
g47
ssI11
(dp104
g13
I2
sg15
g16
(g17
(I0
tp105
g19
tp106
Rp107
(I1
(I2
tp108
g26
I00
S'\xba\x129\x90\xc5\xc7;@\xaa\xf3\xeaI\xbe\xf1G@'
p109
tp110
bsg31
g47
ssI12
(dp111
g13
I2
sg15
g16
(g17
(I0
tp112
g19
tp113
Rp114
(I1
(I2
tp115
g26
I00
S'\xcc\xdfNw\xbd>6@U\xcb\xf1\xcd\xef\xe4F@'
p116
tp117
bsg31
g47
ssI13
(dp118
g13
I2
sg15
g16
(g17
(I0
tp119
g19
tp120
Rp121
(I1
(I2
tp122
g26
I00
S'\xba\x129\x90\xc5\xc7;@\x00\xa3\xf8Q!\xd8E@'
p123
tp124
bsg31
g47
ssI14
(dp125
g13
I3
sg15
g16
(g17
(I0
tp126
g19
tp127
Rp128
(I1
(I2
tp129
g26
I00
S'c\xdd\xa0\x0f\x0c\xb37@\xc3}\x87C\xb7Y?@'
p130
tp131
bsg31
g47
ssI15
(dp132
g13
I3
sg15
g16
(g17
(I0
tp133
g19
tp134
Rp135
(I1
(I2
tp136
g26
I00
S'u\xaa\xb6\xf6\x03*2@6\xe7\xbc\x1d\xaa\xb9@@'
p137
tp138
bsg31
g47
ssI16
(dp139
g13
I3
sg15
g16
(g17
(I0
tp140
g19
tp141
Rp142
(I1
(I2
tp143
g26
I00
S'\x0e\xef\x98\xbb\xf7A)@\xc3}\x87C\xb7Y?@'
p144
tp145
bsg31
g47
ssI17
(dp146
g13
I3
sg15
g16
(g17
(I0
tp147
g19
tp148
Rp149
(I1
(I2
tp150
g26
I00
S'u\xaa\xb6\xf6\x03*2@\x1a-\x95K\x1a@=@'
p151
tp152
bsg31
g47
ssI18
(dp153
g13
I4
sg15
g16
(g17
(I0
tp154
g19
tp155
Rp156
(I1
(I2
tp157
g26
I00
S'n\x7f)\xeb\xef\xbb*@MK\x82s>\xb8.@'
p158
tp159
bsg31
g47
ssI19
(dp160
g13
I4
sg15
g16
(g17
(I0
tp161
g19
tp162
Rp163
(I1
(I2
tp164
g26
I00
S'$3\xaar\xbfS\x1f@Pv\xb31\xbcu1@'
p165
tp166
bsg31
g47
ssI20
(dp167
g13
I4
sg15
g16
(g17
(I0
tp168
g19
tp169
Rp170
(I1
(I2
tp171
g26
I00
S'\xd8\xce\x02\x1e>_\x02@MK\x82s>\xb8.@'
p172
tp173
bsg31
g47
ssI21
(dp174
g13
I4
sg15
g16
(g17
(I0
tp175
g19
tp176
Rp177
(I1
(I2
tp178
g26
I00
S'$3\xaar\xbfS\x1f@\xfb\xa9\x9d\x83\x04\x85*@'
p179
tp180
bsg31
g47
ssI22
(dp181
g13
I5
sg15
g16
(g17
(I0
tp182
g19
tp183
Rp184
(I1
(I2
tp185
g26
I00
S'"\xa9j\x04bu\x11@ \x91O\xa1^\x13\xe1?'
p186
tp187
bsg31
g47
ssI23
(dp188
g13
I5
sg15
g16
(g17
(I0
tp189
g19
tp190
Rp191
(I1
(I2
tp192
g26
I00
S'`\x8a\xf8|\xf9\xba\xf2\xbf\x90i\xe6g\xbf\x11\x05@'
p193
tp194
bsg31
g47
ssI24
(dp195
g13
I5
sg15
g16
(g17
(I0
tp196
g19
tp197
Rp198
(I1
(I2
tp199
g26
I00
S'P\xee\xe6\xc2\xde\xd2\x1a\xc0 \x91O\xa1^\x13\xe1?'
p200
tp201
bsg31
g47
ssI25
(dp202
g13
I5
sg15
g16
(g17
(I0
tp203
g19
tp204
Rp205
(I1
(I2
tp206
g26
I00
S'`\x8a\xf8|\xf9\xba\xf2\xbf\x10B}. \x10\xf9\xbf'
p207
tp208
bsg31
g47
ssI26
(dp209
g13
I6
sg15
g16
(g17
(I0
tp210
g19
tp211
Rp212
(I1
(I2
tp213
g26
I00
S'^,\x1d5f; \xc0\xd8\x08\xbe{\x00D+\xc0'
p214
tp215
bsg31
g47
ssI27
(dp216
g13
I6
sg15
g16
(g17
(I0
tp217
g19
tp218
Rp219
(I1
(I2
tp220
g26
I00
S"<\x92\xf1fvM+\xc0\x84g\xd9\x8b\xc6\x10'\xc0"
p221
tp222
bsg31
g47
ssI28
(dp223
g13
I6
sg15
g16
(g17
(I0
tp224
g19
tp225
Rp226
(I1
(I2
tp227
g26
I00
S'\n\xfcbL\xc3/3\xc0\xd8\x08\xbe{\x00D+\xc0'
p228
tp229
bsg31
g47
ssI29
(dp230
g13
I6
sg15
g16
(g17
(I0
tp231
g19
tp232
Rp233
(I1
(I2
tp234
g26
I00
S'<\x92\xf1fvM+\xc0(\xaa\xa2k:w/\xc0'
p235
tp236
bsg31
g47
ssI30
(dp237
g13
I7
sg15
g16
(g17
(I0
tp238
g19
tp239
Rp240
(I1
(I2
tp241
g26
I00
S't\xbb\x03\x8e\x14\x8d5@\niI\x1d\xe2\xf2P@'
p242
tp243
bsg31
g47
ssI31
(dp244
g13
I7
sg15
g16
(g17
(I0
tp245
g19
tp246
Rp247
(I1
(I2
tp248
g26
I00
S'\x87\x88\x19u\x0c\x040@4\xfdE[IyQ@'
p249
tp250
bsg31
g47
ssI32
(dp251
g13
I7
sg15
g16
(g17
(I0
tp252
g19
tp253
Rp254
(I1
(I2
tp255
g26
I00
S'2\xab^\xb8\x08\xf6$@\niI\x1d\xe2\xf2P@'
p256
tp257
bsg31
g47
ssI33
(dp258
g13
I7
sg15
g16
(g17
(I0
tp259
g19
tp260
Rp261
(I1
(I2
tp262
g26
I00
S'\x87\x88\x19u\x0c\x040@\xdf\xd4L\xdfzlP@'
p263
tp264
bsg31
g47
ssI34
(dp265
g13
I8
sg15
g16
(g17
(I0
tp266
g19
tp267
Rp268
(I1
(I2
tp269
g26
I00
S'\x8d\xc7\xf4U\xc2\xd8&@\xd0Q\xdei\x00\xe2I@'
p270
tp271
bsg31
g47
ssI35
(dp272
g13
I8
sg15
g16
(g17
(I0
tp273
g19
tp274
Rp275
(I1
(I2
tp276
g26
I00
S'd\xc3@Hd\x8d\x17@%z\xd7\xe5\xce\xeeJ@'
p277
tp278
bsg31
g47
ssI36
(dp279
g13
I8
sg15
g16
(g17
(I0
tp280
g19
tp281
Rp282
(I1
(I2
tp283
g26
I00
S'\xc0z\x7fI>\x94\xd6?\xd0Q\xdei\x00\xe2I@'
p284
tp285
bsg31
g47
ssI37
(dp286
g13
I8
sg15
g16
(g17
(I0
tp287
g19
tp288
Rp289
(I1
(I2
tp290
g26
I00
S'd\xc3@Hd\x8d\x17@{)\xe5\xed1\xd5H@'
p291
tp292
bsg31
g47
ssI38
(dp293
g13
I9
sg15
g16
(g17
(I0
tp294
g19
tp295
Rp296
(I1
(I2
tp297
g26
I00
S'\x00fS\xa7\xed\xa3\xf9?p\x9d\r\xa6\xfc\x9fB@'
p298
tp299
bsg31
g47
ssI39
(dp300
g13
I9
sg15
g16
(g17
(I0
tp301
g19
tp302
Rp303
(I1
(I2
tp304
g26
I00
S'h\xe4\xa7\xf3Iv\x0f\xc0\xc4\xc5\x06"\xcb\xacC@'
p305
tp306
bsg31
g47
ssI40
(dp307
g13
I9
sg15
g16
(g17
(I0
tp308
g19
tp309
Rp310
(I1
(I2
tp311
g26
I00
S'\xf4^\xbe\xae\xa2\xef"\xc0p\x9d\r\xa6\xfc\x9fB@'
p312
tp313
bsg31
g47
ssI41
(dp314
g13
I9
sg15
g16
(g17
(I0
tp315
g19
tp316
Rp317
(I1
(I2
tp318
g26
I00
S'h\xe4\xa7\xf3Iv\x0f\xc0\x1bu\x14*.\x93A@'
p319
tp320
bsg31
g47
ssI42
(dp321
g13
I10
sg15
g16
(g17
(I0
tp322
g19
tp323
Rp324
(I1
(I2
tp325
g26
I00
S'\xb6w>\xc9\xee\xaf"\xc0o\xe2TBaB5@'
p326
tp327
bsg31
g47
ssI43
(dp328
g13
I10
sg15
g16
(g17
(I0
tp329
g19
tp330
Rp331
(I1
(I2
tp332
g26
I00
S'\x94\xdd\x12\xfb\xfe\xc1-\xc0\x183G:\xfe[7@'
p333
tp334
bsg31
g47
ssI44
(dp335
g13
I10
sg15
g16
(g17
(I0
tp336
g19
tp337
Rp338
(I1
(I2
tp339
g26
I00
S'\xb8\xa1s\x96\x07j4\xc0o\xe2TBaB5@'
p340
tp341
bsg31
g47
ssI45
(dp342
g13
I10
sg15
g16
(g17
(I0
tp343
g19
tp344
Rp345
(I1
(I2
tp346
g26
I00
S'\x94\xdd\x12\xfb\xfe\xc1-\xc0\xc6\x91bJ\xc4(3@'
p347
tp348
bsg31
g47
ssI46
(dp349
g13
I11
sg15
g16
(g17
(I0
tp350
g19
tp351
Rp352
(I1
(I2
tp353
g26
I00
S"\xd8y\x9d\xeb'\xa72\xc0\x80e\xf8d`\x98\x1b@"
p354
tp355
bsg31
g47
ssI47
(dp356
g13
I11
sg15
g16
(g17
(I0
tp357
g19
tp358
Rp359
(I1
(I2
tp360
g26
I00
S'\xc6\xac\x87\x04008\xc0\x12\xd4`"j\xff!@'
p361
tp362
bsg31
g47
ssI48
(dp363
g13
I11
sg15
g16
(g17
(I0
tp364
g19
tp365
Rp366
(I1
(I2
tp367
g26
I00
S'\xb4\xdfq\x1d8\xb9=\xc0\x80e\xf8d`\x98\x1b@'
p368
tp369
bsg31
g47
ssI49
(dp370
g13
I11
sg15
g16
(g17
(I0
tp371
g19
tp372
Rp373
(I1
(I2
tp374
g26
I00
S'\xc6\xac\x87\x04008\xc0\xda"/\x85\xec1\x13@'
p375
tp376
bsg31
g47
ssI50
(dp377
g13
I0
sg15
g16
(g17
(I0
tp378
g19
tp379
Rp380
(I1
(I2
tp381
g26
I00
S'\xda\xa5}\xcd\x1b\rE@\x8bx\xc6D\xc7A9@'
p382
tp383
bsg31
S'turbine'
p384
ssI51
(dp385
g13
I1
sg15
g16
(g17
(I0
tp386
g19
tp387
Rp388
(I1
(I2
tp389
g26
I00
S'p\xc0\xfb\xd2"1@@\xc1\x80\xc0>\xe8\x99!@'
p390
tp391
bsg31
g384
ssI52
(dp392
g13
I2
sg15
g16
(g17
(I0
tp393
g19
tp394
Rp395
(I1
(I2
tp396
g26
I00
S'\xba\x129\x90\xc5\xc7;@U\xcb\xf1\xcd\xef\xe4F@'
p397
tp398
bsg31
g384
ssI53
(dp399
g13
I3
sg15
g16
(g17
(I0
tp400
g19
tp401
Rp402
(I1
(I2
tp403
g26
I00
S'u\xaa\xb6\xf6\x03*2@\xc3}\x87C\xb7Y?@'
p404
tp405
bsg31
g384
ssI54
(dp406
g13
I4
sg15
g16
(g17
(I0
tp407
g19
tp408
Rp409
(I1
(I2
tp410
g26
I00
S'$3\xaar\xbfS\x1f@MK\x82s>\xb8.@'
p411
tp412
bsg31
g384
ssI55
(dp413
g13
I5
sg15
g16
(g17
(I0
tp414
g19
tp415
Rp416
(I1
(I2
tp417
g26
I00
S'`\x8a\xf8|\xf9\xba\xf2\xbf \x91O\xa1^\x13\xe1?'
p418
tp419
bsg31
g384
ssI56
(dp420
g13
I6
sg15
g16
(g17
(I0
tp421
g19
tp422
Rp423
(I1
(I2
tp424
g26
I00
S'<\x92\xf1fvM+\xc0\xd8\x08\xbe{\x00D+\xc0'
p425
tp426
bsg31
g384
ssI57
(dp427
g13
I7
sg15
g16
(g17
(I0
tp428
g19
tp429
Rp430
(I1
(I2
tp431
g26
I00
S'\x87\x88\x19u\x0c\x040@\niI\x1d\xe2\xf2P@'
p432
tp433
bsg31
g384
ssI58
(dp434
g13
I8
sg15
g16
(g17
(I0
tp435
g19
tp436
Rp437
(I1
(I2
tp438
g26
I00
S'd\xc3@Hd\x8d\x17@\xd0Q\xdei\x00\xe2I@'
p439
tp440
bsg31
g384
ssI59
(dp441
g13
I9
sg15
g16
(g17
(I0
tp442
g19
tp443
Rp444
(I1
(I2
tp445
g26
I00
S'h\xe4\xa7\xf3Iv\x0f\xc0p\x9d\r\xa6\xfc\x9fB@'
p446
tp447
bsg31
g384
ssI60
(dp448
g13
I10
sg15
g16
(g17
(I0
tp449
g19
tp450
Rp451
(I1
(I2
tp452
g26
I00
S'\x94\xdd\x12\xfb\xfe\xc1-\xc0o\xe2TBaB5@'
p453
tp454
bsg31
g384
ssI61
(dp455
g13
I11
sg15
g16
(g17
(I0
tp456
g19
tp457
Rp458
(I1
(I2
tp459
g26
I00
S'\xc6\xac\x87\x04008\xc0\x80e\xf8d`\x98\x1b@'
p460
tp461
bsg31
g384
sssS'graph'
p462
(dp463
sS'nodes'
p464
g0
(cnetworkx.classes.reportviews
NodeView
p465
g2
Ntp466
Rp467
(dp468
S'_nodes'
p469
g11
sbsS'_adj'
p470
(dp471
I0
(dp472
I9
(dp473
sI2
(dp474
sI5
(dp475
sI6
(dp476
sI7
(dp477
ssI1
(dp478
I26
(dp479
sI28
(dp480
sI29
(dp481
ssI2
(dp482
I0
g474
sI3
(dp483
sI5
(dp484
sI6
(dp485
sI7
(dp486
sI8
(dp487
sI13
(dp488
ssI3
(dp489
I2
g483
sI4
(dp490
sI10
(dp491
sI12
(dp492
sI13
(dp493
sI14
(dp494
sI15
(dp495
sI17
(dp496
sI19
(dp497
sI42
(dp498
ssI4
(dp499
I3
g490
sI5
(dp500
sI6
(dp501
sI7
(dp502
sI8
(dp503
sI10
(dp504
sI43
(dp505
sI45
(dp506
sI14
(dp507
sI13
(dp508
sI17
(dp509
sI18
(dp510
sI19
(dp511
sI42
(dp512
ssI5
(dp513
I0
g475
sI2
g484
sI4
g500
sI6
(dp514
sI7
(dp515
sI8
(dp516
sI42
(dp517
sI17
(dp518
sI18
(dp519
sI19
(dp520
sI21
(dp521
ssI6
(dp522
I0
g476
sI2
g485
sI4
g501
sI5
g514
sI7
(dp523
sI9
(dp524
ssI7
(dp525
I0
g477
sI2
g486
sI4
g502
sI5
g515
sI6
g523
sI8
(dp526
sI46
(dp527
sI17
(dp528
sI18
(dp529
sI19
(dp530
sI14
(dp531
sI22
(dp532
sI23
(dp533
sI25
(dp534
sI21
(dp535
ssI8
(dp536
I2
g487
sI4
g503
sI5
g516
sI7
g526
sI9
(dp537
sI46
(dp538
sI47
(dp539
sI49
(dp540
sI18
(dp541
sI17
(dp542
sI22
(dp543
sI23
(dp544
sI25
(dp545
sI21
(dp546
ssI9
(dp547
I0
g473
sI6
g524
sI8
g537
sI46
(dp548
sI21
(dp549
sI22
(dp550
sI23
(dp551
sI25
(dp552
ssI10
(dp553
I33
(dp554
sI3
g491
sI4
g504
sI11
(dp555
sI13
(dp556
sI14
(dp557
sI15
(dp558
sI16
(dp559
ssI11
(dp560
I32
(dp561
sI33
(dp562
sI34
(dp563
sI35
(dp564
sI37
(dp565
sI39
(dp566
sI10
g555
sI12
(dp567
sI30
(dp568
ssI12
(dp569
I33
(dp570
sI34
(dp571
sI3
g492
sI37
(dp572
sI38
(dp573
sI39
(dp574
sI11
g567
sI13
(dp575
sI14
(dp576
sI15
(dp577
sI16
(dp578
ssI13
(dp579
I2
g488
sI3
g493
sI4
g508
sI37
(dp580
sI38
(dp581
sI39
(dp582
sI41
(dp583
sI10
g556
sI12
g575
sI14
(dp584
sI15
(dp585
sI16
(dp586
ssI14
(dp587
I34
(dp588
sI3
g494
sI4
g507
sI37
(dp589
sI7
g531
sI10
g557
sI12
g576
sI13
g584
sI15
(dp590
sI17
(dp591
sI18
(dp592
sI19
(dp593
sI20
(dp594
ssI15
(dp595
I34
(dp596
sI3
g495
sI36
(dp597
sI37
(dp598
sI38
(dp599
sI39
(dp600
sI41
(dp601
sI10
g558
sI43
(dp602
sI12
g577
sI13
g585
sI14
g590
sI16
(dp603
ssI16
(dp604
I34
(dp605
sI36
(dp606
sI37
(dp607
sI38
(dp608
sI41
(dp609
sI10
g559
sI43
(dp610
sI12
g578
sI13
g586
sI15
g603
sI17
(dp611
sI18
(dp612
sI19
(dp613
sI20
(dp614
sI42
(dp615
ssI17
(dp616
I3
g496
sI4
g509
sI5
g518
sI7
g528
sI8
g542
sI41
(dp617
sI42
(dp618
sI43
(dp619
sI45
(dp620
sI14
g591
sI16
g611
sI18
(dp621
sI19
(dp622
sI20
(dp623
ssI18
(dp624
I4
g510
sI5
g519
sI7
g529
sI8
g541
sI41
(dp625
sI14
g592
sI16
g612
sI17
g621
sI19
(dp626
sI21
(dp627
sI22
(dp628
sI23
(dp629
sI24
(dp630
ssI19
(dp631
I3
g497
sI4
g511
sI5
g520
sI38
(dp632
sI7
g530
sI40
(dp633
sI41
(dp634
sI42
(dp635
sI43
(dp636
sI45
(dp637
sI14
g593
sI47
(dp638
sI16
g613
sI17
g622
sI18
g626
sI20
(dp639
ssI20
(dp640
I41
(dp641
sI42
(dp642
sI45
(dp643
sI14
g594
sI47
(dp644
sI16
g614
sI17
g623
sI19
g639
sI46
(dp645
sI22
(dp646
sI23
(dp647
sI24
(dp648
sI21
(dp649
ssI21
(dp650
I5
g521
sI7
g535
sI8
g546
sI9
g549
sI45
(dp651
sI46
(dp652
sI47
(dp653
sI49
(dp654
sI18
g627
sI20
g649
sI22
(dp655
sI23
(dp656
sI24
(dp657
ssI22
(dp658
I7
g532
sI8
g543
sI9
g550
sI45
(dp659
sI18
g628
sI20
g646
sI21
g655
sI23
(dp660
sI25
(dp661
sI26
(dp662
sI27
(dp663
sI28
(dp664
ssI23
(dp665
I7
g533
sI8
g544
sI9
g551
sI42
(dp666
sI44
(dp667
sI45
(dp668
sI46
(dp669
sI47
(dp670
sI49
(dp671
sI18
g629
sI20
g647
sI21
g656
sI22
g660
sI24
(dp672
ssI24
(dp673
I42
(dp674
sI45
(dp675
sI46
(dp676
sI49
(dp677
sI18
g630
sI20
g648
sI21
g657
sI23
g672
sI25
(dp678
sI26
(dp679
sI27
(dp680
sI28
(dp681
ssI25
(dp682
I7
g534
sI8
g545
sI9
g552
sI49
(dp683
sI22
g661
sI24
g678
sI26
(dp684
sI27
(dp685
sI28
(dp686
ssI26
(dp687
I1
g479
sI46
(dp688
sI49
(dp689
sI22
g662
sI24
g679
sI25
g684
sI27
(dp690
sI29
(dp691
ssI27
(dp692
I46
(dp693
sI48
(dp694
sI49
(dp695
sI22
g663
sI24
g680
sI25
g685
sI26
g690
sI28
(dp696
ssI28
(dp697
I1
g480
sI46
(dp698
sI48
(dp699
sI49
(dp700
sI22
g664
sI24
g681
sI25
g686
sI27
g696
sI29
(dp701
ssI29
(dp702
I1
g481
sI26
g691
sI28
g701
ssI30
(dp703
I33
(dp704
sI34
(dp705
sI35
(dp706
sI36
(dp707
sI11
g568
sI31
(dp708
ssI31
(dp709
I32
(dp710
sI30
g708
ssI32
(dp711
I33
(dp712
sI34
(dp713
sI35
(dp714
sI36
(dp715
sI11
g561
sI31
g710
ssI33
(dp716
I32
g712
sI34
(dp717
sI35
(dp718
sI36
(dp719
sI10
g554
sI11
g562
sI12
g570
sI30
g704
ssI34
(dp720
I32
g713
sI33
g717
sI35
(dp721
sI37
(dp722
sI38
(dp723
sI39
(dp724
sI40
(dp725
sI11
g563
sI12
g571
sI14
g588
sI15
g596
sI16
g605
sI30
g705
ssI35
(dp726
I32
g714
sI33
g718
sI34
g721
sI36
(dp727
sI11
g564
sI30
g706
ssI36
(dp728
I32
g715
sI33
g719
sI35
g727
sI37
(dp729
sI38
(dp730
sI39
(dp731
sI40
(dp732
sI15
g597
sI16
g606
sI30
g707
ssI37
(dp733
I34
g722
sI36
g729
sI38
(dp734
sI39
(dp735
sI40
(dp736
sI11
g565
sI12
g572
sI13
g580
sI14
g589
sI15
g598
sI16
g607
ssI38
(dp737
I34
g723
sI36
g730
sI37
g734
sI39
(dp738
sI44
(dp739
sI42
(dp740
sI43
(dp741
sI12
g573
sI13
g581
sI15
g599
sI16
g608
sI19
g632
sI41
(dp742
ssI39
(dp743
I34
g724
sI36
g731
sI37
g735
sI38
g738
sI40
(dp744
sI11
g566
sI12
g574
sI13
g582
sI15
g600
ssI40
(dp745
I34
g725
sI36
g732
sI37
g736
sI39
g744
sI41
(dp746
sI42
(dp747
sI43
(dp748
sI44
(dp749
sI19
g633
ssI41
(dp750
I38
g742
sI40
g746
sI42
(dp751
sI43
(dp752
sI44
(dp753
sI13
g583
sI15
g601
sI16
g609
sI17
g617
sI18
g625
sI19
g634
sI20
g641
ssI42
(dp754
I48
(dp755
sI3
g498
sI4
g512
sI5
g517
sI38
g740
sI40
g747
sI41
g751
sI43
(dp756
sI45
(dp757
sI46
(dp758
sI47
(dp759
sI16
g615
sI17
g618
sI19
g635
sI20
g642
sI23
g666
sI24
g674
ssI43
(dp760
I4
g505
sI38
g741
sI40
g748
sI41
g752
sI42
g756
sI44
(dp761
sI15
g602
sI16
g610
sI17
g619
sI19
g636
ssI44
(dp762
I38
g739
sI40
g749
sI41
g753
sI43
g761
sI45
(dp763
sI46
(dp764
sI47
(dp765
sI48
(dp766
sI23
g667
ssI45
(dp767
I4
g506
sI42
g757
sI44
g763
sI46
(dp768
sI47
(dp769
sI48
(dp770
sI17
g620
sI19
g637
sI20
g643
sI21
g651
sI22
g659
sI23
g668
sI24
g675
ssI46
(dp771
I7
g527
sI8
g538
sI9
g548
sI42
g758
sI44
g764
sI45
g768
sI47
(dp772
sI49
(dp773
sI20
g645
sI21
g652
sI23
g669
sI24
g676
sI26
g688
sI27
g693
sI28
g698
ssI47
(dp774
I8
g539
sI42
g759
sI44
g765
sI45
g769
sI46
g772
sI48
(dp775
sI19
g638
sI20
g644
sI21
g653
sI23
g670
ssI48
(dp776
I42
g755
sI44
g766
sI45
g770
sI47
g775
sI49
(dp777
sI27
g694
sI28
g699
ssI49
(dp778
I8
g540
sI46
g773
sI48
g777
sI21
g654
sI23
g671
sI24
g677
sI25
g683
sI26
g689
sI27
g695
sI28
g700
ssI50
(dp779
sI51
(dp780
sI52
(dp781
sI53
(dp782
sI54
(dp783
sI55
(dp784
sI56
(dp785
sI57
(dp786
sI58
(dp787
sI59
(dp788
sI60
(dp789
sI61
(dp790
ssS'adjlist_outer_dict_factory'
p791
g7
sb.