ccopy_reg
_reconstructor
p0
(cnetworkx.classes.graph
Graph
p1
c__builtin__
object
p2
Ntp3
Rp4
(dp5
S'adjlist_inner_dict_factory'
p6
c__builtin__
dict
p7
sS'node_dict_factory'
p8
g7
sS'edge_attr_dict_factory'
p9
g7
sS'_node'
p10
(dp11
I0
(dp12
S'related_to'
p13
S'NaN'
p14
sS'pos'
p15
cnumpy.core.multiarray
_reconstruct
p16
(cnumpy
ndarray
p17
(I0
tp18
S'b'
p19
tp20
Rp21
(I1
(I2
tp22
cnumpy
dtype
p23
(S'f8'
p24
I0
I1
tp25
Rp26
(I3
S'<'
p27
NNNI-1
I-1
I0
tp28
bI00
S'\x7f#\x1b\xa5\xb1hQ@\x00z|\xbd\x08\xc0\xe3?'
p29
tp30
bsS'description'
p31
S'corner'
p32
ssI1
(dp33
g13
I0
sg15
g16
(g17
(I0
tp34
g19
tp35
Rp36
(I1
(I2
tp37
g26
I00
S'~#\x07h\x02FD@\xd8\xf1L:\xcf<8@'
p38
tp39
bsg31
S'countor_point'
p40
ssI2
(dp41
g13
I0
sg15
g16
(g17
(I0
tp42
g19
tp43
Rp44
(I1
(I2
tp45
g26
I00
S'\xf34\x9f\x803\xc1A@\xd6\x80C\x11\x97F<@'
p46
tp47
bsg31
g40
ssI3
(dp48
g13
I0
sg15
g16
(g17
(I0
tp49
g19
tp50
Rp51
(I1
(I2
tp52
g26
I00
S'\x8b\xca\xb0V\xc2[;@?\xd5t\x96\xb8\xbb:@'
p53
tp54
bsg31
g40
ssI4
(dp55
g13
I0
sg15
g16
(g17
(I0
tp56
g19
tp57
Rp58
(I1
(I2
tp59
g26
I00
S'\x8b\xca\xb0V\xc2[;@p\x0e%\xde\xe5\xbd5@'
p60
tp61
bsg31
g40
ssI5
(dp62
g13
I0
sg15
g16
(g17
(I0
tp63
g19
tp64
Rp65
(I1
(I2
tp66
g26
I00
S'\xf34\x9f\x803\xc1A@\xdabVc\x0734@'
p67
tp68
bsg31
g40
ssI6
(dp69
g13
I1
sg15
g16
(g17
(I0
tp70
g19
tp71
Rp72
(I1
(I2
tp73
g26
I00
S'\\\xb2\xc2J/\xbf;@\xc2\xdcMa\xe8\x11"\xc0'
p74
tp75
bsg31
g40
ssI7
(dp76
g13
I1
sg15
g16
(g17
(I0
tp77
g19
tp78
Rp79
(I1
(I2
tp80
g26
I00
S'G\xd5\xf2{\x91\xb56@\x90}\xc1f\xb1\xfc\x13\xc0'
p81
tp82
bsg31
g40
ssI8
(dp83
g13
I1
sg15
g16
(g17
(I0
tp84
g19
tp85
Rp86
(I1
(I2
tp87
g26
I00
S'\xd8k\xca\xa2\xd9\x1d-@\xe8+\xfcQ+(\x1a\xc0'
p88
tp89
bsg31
g40
ssI9
(dp90
g13
I1
sg15
g16
(g17
(I0
tp91
g19
tp92
Rp93
(I1
(I2
tp94
g26
I00
S"\xd8k\xca\xa2\xd9\x1d-@\x92\xa3\x9d\x19\xbb\x0f'\xc0"
p95
tp96
bsg31
g40
ssI10
(dp97
g13
I1
sg15
g16
(g17
(I0
tp98
g19
tp99
Rp100
(I1
(I2
tp101
g26
I00
S'G\xd5\xf2{\x91\xb56@\xc0\xfa:\x0fx%*\xc0'
p102
tp103
bsg31
g40
ssI11
(dp104
g13
I2
sg15
g16
(g17
(I0
tp105
g19
tp106
Rp107
(I1
(I2
tp108
g26
I00
S'r\xe4\x9e\x0b\x00\xaf5@\xea\xd4\xc3,\xfboP@'
p109
tp110
bsg31
g40
ssI12
(dp111
g13
I2
sg15
g16
(g17
(I0
tp112
g19
tp113
Rp114
(I1
(I2
tp115
g26
I00
S']\x07\xcf<b\xa50@\xa8x\x81"mrQ@'
p116
tp117
bsg31
g40
ssI13
(dp118
g13
I2
sg15
g16
(g17
(I0
tp119
g19
tp120
Rp121
(I1
(I2
tp122
g26
I00
S'\x04\xd0\x82${\xfd @\xc3\xcd\xcd\x83\xb5\x0fQ@'
p123
tp124
bsg31
g40
ssI14
(dp125
g13
I2
sg15
g16
(g17
(I0
tp126
g19
tp127
Rp128
(I1
(I2
tp129
g26
I00
S'\x04\xd0\x82${\xfd @\x1e\xb8s\xab\x81\xa0O@'
p130
tp131
bsg31
g40
ssI15
(dp132
g13
I2
sg15
g16
(g17
(I0
tp133
g19
tp134
Rp135
(I1
(I2
tp136
g26
I00
S']\x07\xcf<b\xa50@Sb\x0cn\x12\xdbN@'
p137
tp138
bsg31
g40
ssI16
(dp139
g13
I3
sg15
g16
(g17
(I0
tp140
g19
tp141
Rp142
(I1
(I2
tp143
g26
I00
S'\xa7h\xdbuQ\t"@\xd1\xbcEteGB@'
p144
tp145
bsg31
g40
ssI17
(dp146
g13
I3
sg15
g16
(g17
(I0
tp147
g19
tp148
Rp149
(I1
(I2
tp150
g26
I00
S'\xf8\xb9\xee`W\xd8\x0f@P\x04\xc1_ILD@'
p151
tp152
bsg31
g40
ssI18
(dp153
g13
I3
sg15
g16
(g17
(I0
tp154
g19
tp155
Rp156
(I1
(I2
tp157
g26
I00
S'p \xbf\xf9f\xae\x10\xc0\x85\xaeY"\xda\x86C@'
p158
tp159
bsg31
g40
ssI19
(dp160
g13
I3
sg15
g16
(g17
(I0
tp161
g19
tp162
Rp163
(I1
(I2
tp164
g26
I00
S'p \xbf\xf9f\xae\x10\xc0\x1d\xcb1\xc6\xf0\x07A@'
p165
tp166
bsg31
g40
ssI20
(dp167
g13
I3
sg15
g16
(g17
(I0
tp168
g19
tp169
Rp170
(I1
(I2
tp171
g26
I00
S'\xf8\xb9\xee`W\xd8\x0f@Ru\xca\x88\x81B@@'
p172
tp173
bsg31
g40
ssI21
(dp174
g13
I4
sg15
g16
(g17
(I0
tp175
g19
tp176
Rp177
(I1
(I2
tp178
g26
I00
S't\xff\xf0\x17\x88\\\x12\xc0\x9a\x94\x14cd\xe8\x10@'
p179
tp180
bsg31
g40
ssI22
(dp181
g13
I4
sg15
g16
(g17
(I0
tp182
g19
tp183
Rp184
(I1
(I2
tp185
g26
I00
S'\xe49\x98\xa9\x7fA#\xc0Hhw\xdf\xc1\x87 @'
p186
tp187
bsg31
g40
ssI23
(dp188
g13
I4
sg15
g16
(g17
(I0
tp189
g19
tp190
Rp191
(I1
(I2
tp192
g26
I00
S'N\xbcY\x7fd\xc71\xc08"\xb4\xd3\t\xe4\x1a@'
p193
tp194
bsg31
g40
ssI24
(dp195
g13
I4
sg15
g16
(g17
(I0
tp196
g19
tp197
Rp198
(I1
(I2
tp199
g26
I00
S'N\xbcY\x7fd\xc71\xc0\xf0\x1b\xd4\xc9\xfb\xb2\xfb?'
p200
tp201
bsg31
g40
ssI25
(dp202
g13
I4
sg15
g16
(g17
(I0
tp203
g19
tp204
Rp205
(I1
(I2
tp206
g26
I00
S'\xe49\x98\xa9\x7fA#\xc0\x80\x14K\xe7\xa0(\xc8?'
p207
tp208
bsg31
g40
ssI26
(dp209
g13
I5
sg15
g16
(g17
(I0
tp210
g19
tp211
Rp212
(I1
(I2
tp213
g26
I00
S'h\x10\x0f\x1b\x84r0\xc0NT\x0f\xb3\xec\xbf9\xc0'
p214
tp215
bsg31
g40
ssI27
(dp216
g13
I5
sg15
g16
(g17
(I0
tp217
g19
tp218
Rp219
(I1
(I2
tp220
g26
I00
S'~\xed\xde\xe9!|5\xc0R\xc5\x18\xdc$\xb65\xc0'
p221
tp222
bsg31
g40
ssI28
(dp223
g13
I5
sg15
g16
(g17
(I0
tp224
g19
tp225
Rp226
(I1
(I2
tp227
g26
I00
S'\xda\x8cl\x94\xc6\xa2=\xc0\xe8p\xe7V\x03A7\xc0'
p228
tp229
bsg31
g40
ssI29
(dp230
g13
I5
sg15
g16
(g17
(I0
tp231
g19
tp232
Rp233
(I1
(I2
tp234
g26
I00
S'\xda\x8cl\x94\xc6\xa2=\xc0\xb677\x0f\xd6><\xc0'
p235
tp236
bsg31
g40
ssI30
(dp237
g13
I5
sg15
g16
(g17
(I0
tp238
g19
tp239
Rp240
(I1
(I2
tp241
g26
I00
S'~\xed\xde\xe9!|5\xc0L\xe3\x05\x8a\xb4\xc9=\xc0'
p242
tp243
bsg31
g40
ssI31
(dp244
g13
I0
sg15
g16
(g17
(I0
tp245
g19
tp246
Rp247
(I1
(I2
tp248
g26
I00
S'c\xde\xca\x8c\xd5\xa0@@\xd8\xf1L:\xcf<8@'
p249
tp250
bsg31
S'turbine'
p251
ssI32
(dp252
g13
I1
sg15
g16
(g17
(I0
tp253
g19
tp254
Rp255
(I1
(I2
tp256
g26
I00
S'\'(J\x94\xd5t4@\xc2\xdcMa\xe8\x11"\xc0'
p257
tp258
bsg31
g251
ssI33
(dp259
g13
I2
sg15
g16
(g17
(I0
tp260
g19
tp261
Rp262
(I1
(I2
tp263
g26
I00
S'z\xb4L\xaaL\xc9,@\xea\xd4\xc3,\xfboP@'
p264
tp265
bsg31
g251
ssI34
(dp266
g13
I3
sg15
g16
(g17
(I0
tp267
g19
tp268
Rp269
(I1
(I2
tp270
g26
I00
S'\xf0\xa1RG\xf0\xa4\xfb?\xd1\xbcEteGB@'
p271
tp272
bsg31
g251
ssI35
(dp273
g13
I4
sg15
g16
(g17
(I0
tp274
g19
tp275
Rp276
(I1
(I2
tp277
g26
I00
S"$\x94\xe9x\xf7\xc2'\xc0\x9a\x94\x14cd\xe8\x10@"
p278
tp279
bsg31
g251
ssI36
(dp280
g13
I5
sg15
g16
(g17
(I0
tp281
g19
tp282
Rp283
(I1
(I2
tp284
g26
I00
S'\x9e\x9a\x87\xd1\xdd\xbc7\xc0NT\x0f\xb3\xec\xbf9\xc0'
p285
tp286
bsg31
g251
sssS'graph'
p287
(dp288
sS'nodes'
p289
g0
(cnetworkx.classes.reportviews
NodeView
p290
g2
Ntp291
Rp292
(dp293
S'_nodes'
p294
g11
sbsS'_adj'
p295
(dp296
I0
(dp297
I1
(dp298
sI4
(dp299
sI5
(dp300
sI6
(dp301
sI7
(dp302
sI10
(dp303
ssI1
(dp304
I0
g298
sI2
(dp305
sI5
(dp306
sI6
(dp307
sI7
(dp308
sI8
(dp309
sI15
(dp310
ssI2
(dp311
I1
g305
sI3
(dp312
sI11
(dp313
sI14
(dp314
sI15
(dp315
sI16
(dp316
sI17
(dp317
sI20
(dp318
ssI3
(dp319
I2
g312
sI4
(dp320
sI7
(dp321
sI8
(dp322
sI11
(dp323
sI14
(dp324
sI15
(dp325
sI16
(dp326
sI17
(dp327
sI19
(dp328
sI20
(dp329
sI21
(dp330
sI22
(dp331
sI23
(dp332
sI25
(dp333
ssI4
(dp334
I0
g299
sI3
g320
sI5
(dp335
sI6
(dp336
sI7
(dp337
sI8
(dp338
sI15
(dp339
sI16
(dp340
sI19
(dp341
sI20
(dp342
sI21
(dp343
sI22
(dp344
sI23
(dp345
sI25
(dp346
ssI5
(dp347
I0
g300
sI1
g306
sI4
g335
sI6
(dp348
sI7
(dp349
sI8
(dp350
sI21
(dp351
sI22
(dp352
sI23
(dp353
sI25
(dp354
ssI6
(dp355
I0
g301
sI1
g307
sI4
g336
sI5
g348
sI7
(dp356
sI10
(dp357
ssI7
(dp358
I0
g302
sI1
g308
sI3
g321
sI4
g337
sI5
g349
sI6
g356
sI8
(dp359
sI16
(dp360
sI19
(dp361
sI20
(dp362
sI21
(dp363
sI22
(dp364
sI25
(dp365
ssI8
(dp366
I1
g309
sI3
g322
sI4
g338
sI5
g350
sI7
g359
sI9
(dp367
sI19
(dp368
sI20
(dp369
sI21
(dp370
sI22
(dp371
sI24
(dp372
sI25
(dp373
sI26
(dp374
sI27
(dp375
sI28
(dp376
sI30
(dp377
ssI9
(dp378
I8
g367
sI10
(dp379
sI21
(dp380
sI24
(dp381
sI25
(dp382
sI26
(dp383
sI27
(dp384
sI28
(dp385
sI30
(dp386
ssI10
(dp387
I0
g303
sI6
g357
sI9
g379
sI26
(dp388
sI27
(dp389
sI28
(dp390
sI30
(dp391
ssI11
(dp392
I2
g313
sI3
g323
sI12
(dp393
sI15
(dp394
sI16
(dp395
sI17
(dp396
sI18
(dp397
ssI12
(dp398
I11
g393
sI13
(dp399
ssI13
(dp400
I17
(dp401
sI18
(dp402
sI12
g399
sI14
(dp403
ssI14
(dp404
I2
g314
sI3
g324
sI13
g403
sI15
(dp405
sI16
(dp406
sI17
(dp407
sI18
(dp408
ssI15
(dp409
I1
g310
sI2
g315
sI3
g325
sI4
g339
sI11
g394
sI14
g405
sI16
(dp410
sI17
(dp411
sI18
(dp412
ssI16
(dp413
I2
g316
sI3
g326
sI4
g340
sI7
g360
sI11
g395
sI14
g406
sI15
g410
sI17
(dp414
sI20
(dp415
sI21
(dp416
sI22
(dp417
sI23
(dp418
ssI17
(dp419
I2
g317
sI3
g327
sI11
g396
sI13
g401
sI14
g407
sI15
g411
sI16
g414
sI18
(dp420
ssI18
(dp421
I11
g397
sI13
g402
sI14
g408
sI15
g412
sI17
g420
sI19
(dp422
sI21
(dp423
sI22
(dp424
sI23
(dp425
ssI19
(dp426
I3
g328
sI4
g341
sI7
g361
sI8
g368
sI18
g422
sI20
(dp427
sI21
(dp428
sI22
(dp429
sI23
(dp430
ssI20
(dp431
I2
g318
sI3
g329
sI4
g342
sI7
g362
sI8
g369
sI16
g415
sI19
g427
sI21
(dp432
sI22
(dp433
sI23
(dp434
ssI21
(dp435
I3
g330
sI4
g343
sI5
g351
sI7
g363
sI8
g370
sI9
g380
sI16
g416
sI18
g423
sI19
g428
sI20
g432
sI22
(dp436
sI25
(dp437
sI26
(dp438
sI27
(dp439
sI28
(dp440
ssI22
(dp441
I3
g331
sI4
g344
sI5
g352
sI7
g364
sI8
g371
sI16
g417
sI18
g424
sI19
g429
sI20
g433
sI21
g436
sI23
(dp442
ssI23
(dp443
I3
g332
sI4
g345
sI5
g353
sI16
g418
sI18
g425
sI19
g430
sI20
g434
sI22
g442
sI24
(dp444
sI27
(dp445
sI28
(dp446
ssI24
(dp447
I8
g372
sI9
g381
sI23
g444
sI25
(dp448
sI26
(dp449
sI27
(dp450
sI28
(dp451
ssI25
(dp452
I3
g333
sI4
g346
sI5
g354
sI7
g365
sI8
g373
sI9
g382
sI21
g437
sI24
g448
sI26
(dp453
sI27
(dp454
sI28
(dp455
ssI26
(dp456
I8
g374
sI9
g383
sI10
g388
sI21
g438
sI24
g449
sI25
g453
sI27
(dp457
sI30
(dp458
ssI27
(dp459
I8
g375
sI9
g384
sI10
g389
sI21
g439
sI23
g445
sI24
g450
sI25
g454
sI26
g457
sI28
(dp460
ssI28
(dp461
I8
g376
sI9
g385
sI10
g390
sI21
g440
sI23
g446
sI24
g451
sI25
g455
sI27
g460
sI29
(dp462
ssI29
(dp463
I28
g462
sI30
(dp464
ssI30
(dp465
I8
g377
sI9
g386
sI10
g391
sI26
g458
sI29
g464
ssI31
(dp466
sI32
(dp467
sI33
(dp468
sI34
(dp469
sI35
(dp470
sI36
(dp471
ssS'adjlist_outer_dict_factory'
p472
g7
sb.