ccopy_reg
_reconstructor
p0
(cnetworkx.classes.graph
Graph
p1
c__builtin__
object
p2
Ntp3
Rp4
(dp5
S'adjlist_inner_dict_factory'
p6
c__builtin__
dict
p7
sS'node_dict_factory'
p8
g7
sS'edge_attr_dict_factory'
p9
g7
sS'_node'
p10
(dp11
I0
(dp12
S'related_to'
p13
S'NaN'
p14
sS'pos'
p15
cnumpy.core.multiarray
_reconstruct
p16
(cnumpy
ndarray
p17
(I0
tp18
S'b'
p19
tp20
Rp21
(I1
(I2
tp22
cnumpy
dtype
p23
(S'f8'
p24
I0
I1
tp25
Rp26
(I3
S'<'
p27
NNNI-1
I-1
I0
tp28
bI00
S'\n\x85Y\x83zlQ@\x92\xd6\x1b\xe5$<9@'
p29
tp30
bsS'description'
p31
S'corner'
p32
ssI1
(dp33
g13
g14
sg15
g16
(g17
(I0
tp34
g19
tp35
Rp36
(I1
(I2
tp37
g26
I00
S'@L3\x9f\x15b)\xc0Tk\xe6\xcd\xf5\xdd=\xc0'
p38
tp39
bsg31
g32
ssI2
(dp40
g13
I0
sg15
g16
(g17
(I0
tp41
g19
tp42
Rp43
(I1
(I2
tp44
g26
I00
S'\xe4pb4\x081H@\x8e\x9fho\x94\x05D@'
p45
tp46
bsg31
S'countor_point'
p47
ssI3
(dp48
g13
I0
sg15
g16
(g17
(I0
tp49
g19
tp50
Rp51
(I1
(I2
tp52
g26
I00
S'\x1a1ZM\xe2\x06E@W\xca\xc2#\xac\xebE@'
p53
tp54
bsg31
g47
ssI4
(dp55
g13
I0
sg15
g16
(g17
(I0
tp56
g19
tp57
Rp58
(I1
(I2
tp59
g26
I00
S'\xea\x89\xbe\xe4\x12\xd0?@Xr\xf1f\x002E@'
p60
tp61
bsg31
g47
ssI5
(dp62
g13
I0
sg15
g16
(g17
(I0
tp63
g19
tp64
Rp65
(I1
(I2
tp66
g26
I00
S'\xea\x89\xbe\xe4\x12\xd0?@\xc4\xcc\xdfw(\xd9B@'
p67
tp68
bsg31
g47
ssI6
(dp69
g13
I0
sg15
g16
(g17
(I0
tp70
g19
tp71
Rp72
(I1
(I2
tp73
g26
I00
S'\x1a1ZM\xe2\x06E@\xc4t\x0e\xbb|\x1fB@'
p74
tp75
bsg31
g47
ssI7
(dp76
g13
I1
sg15
g16
(g17
(I0
tp77
g19
tp78
Rp79
(I1
(I2
tp80
g26
I00
S'\x80\x13\xde\xdf\xac\xd4B@\x91\x9e8\xd9\xfd.3@'
p81
tp82
bsg31
g47
ssI8
(dp83
g13
I1
sg15
g16
(g17
(I0
tp84
g19
tp85
Rp86
(I1
(I2
tp87
g26
I00
S'h\xa7\xab\xf1\rU?@$\xf4\xecA-\xfb6@'
p88
tp89
bsg31
g47
ssI9
(dp90
g13
I1
sg15
g16
(g17
(I0
tp91
g19
tp92
Rp93
(I1
(I2
tp94
g26
I00
S' \xcf\xb5;\\\x175@%DJ\xc8\xd5\x875@'
p95
tp96
bsg31
g47
ssI10
(dp97
g13
I1
sg15
g16
(g17
(I0
tp98
g19
tp99
Rp100
(I1
(I2
tp101
g26
I00
S' \xcf\xb5;\\\x175@\xfd\xf8&\xea%\xd60@'
p102
tp103
bsg31
g47
ssI11
(dp104
g13
I1
sg15
g16
(g17
(I0
tp105
g19
tp106
Rp107
(I1
(I2
tp108
g26
I00
S'h\xa7\xab\xf1\rU?@\xfd\x91\x08\xe1\x9c\xc5.@'
p109
tp110
bsg31
g47
ssI12
(dp111
g13
I2
sg15
g16
(g17
(I0
tp112
g19
tp113
Rp114
(I1
(I2
tp115
g26
I00
S'${i\x8f\x9cJ@@p\x85L\x99q\x84P@'
p116
tp117
bsg31
g47
ssI13
(dp118
g13
I2
sg15
g16
(g17
(I0
tp119
g19
tp120
Rp121
(I1
(I2
tp122
g26
I00
S'\xb3v\xc2P\xed@:@\xd5\x9ays}wQ@'
p123
tp124
bsg31
g47
ssI14
(dp125
g13
I2
sg15
g16
(g17
(I0
tp126
g19
tp127
Rp128
(I1
(I2
tp129
g26
I00
S'j\x9e\xcc\x9a;\x030@\xd6\xee\x10\x95\xa7\x1aQ@'
p130
tp131
bsg31
g47
ssI15
(dp132
g13
I2
sg15
g16
(g17
(I0
tp133
g19
tp134
Rp135
(I1
(I2
tp136
g26
I00
S'j\x9e\xcc\x9a;\x030@\x178\x10;w\xdcO@'
p137
tp138
bsg31
g47
ssI16
(dp139
g13
I2
sg15
g16
(g17
(I0
tp140
g19
tp141
Rp142
(I1
(I2
tp143
g26
I00
S'\xb3v\xc2P\xed@:@\x18\xe0>~\xcb"O@'
p144
tp145
bsg31
g47
ssI17
(dp146
g13
I3
sg15
g16
(g17
(I0
tp147
g19
tp148
Rp149
(I1
(I2
tp150
g26
I00
S'\x97\xe6\xa1\xbdf\xf95@\xd8K\xd7?D\xe2G@'
p151
tp152
bsg31
g47
ssI18
(dp153
g13
I3
sg15
g16
(g17
(I0
tp154
g19
tp155
Rp156
(I1
(I2
tp157
g26
I00
S'\x00\xce"\xdf5J/@\xa0v1\xf4[\xc8I@'
p158
tp159
bsg31
g47
ssI19
(dp160
g13
I3
sg15
g16
(g17
(I0
tp161
g19
tp162
Rp163
(I1
(I2
tp164
g26
I00
S'\xde:n\xe6\xa4\x9d\x15@\xa2\x1e`7\xb0\x0eI@'
p165
tp166
bsg31
g47
ssI20
(dp167
g13
I3
sg15
g16
(g17
(I0
tp168
g19
tp169
Rp170
(I1
(I2
tp171
g26
I00
S'\xde:n\xe6\xa4\x9d\x15@\x0eyNH\xd8\xb5F@'
p172
tp173
bsg31
g47
ssI21
(dp174
g13
I3
sg15
g16
(g17
(I0
tp175
g19
tp176
Rp177
(I1
(I2
tp178
g26
I00
S'\x00\xce"\xdf5J/@\x0e!}\x8b,\xfcE@'
p179
tp180
bsg31
g47
ssI22
(dp181
g13
I4
sg15
g16
(g17
(I0
tp182
g19
tp183
Rp184
(I1
(I2
tp185
g26
I00
S"\xddJ\x16\xcb\xac&%@'N}\x81\x80\x7f;@"
p186
tp187
bsg31
g47
ssI23
(dp188
g13
I4
sg15
g16
(g17
(I0
tp189
g19
tp190
Rp191
(I1
(I2
tp192
g26
I00
S'b\x97\xea]*\xfc\x10@\xba\xa31\xea\xafK?@'
p193
tp194
bsg31
g47
ssI24
(dp195
g13
I4
sg15
g16
(g17
(I0
tp196
g19
tp197
Rp198
(I1
(I2
tp199
g26
I00
S'\xc0\xc9\xecy\x9c\xfa\x17\xc0\xbb\xf3\x8epX\xd8=@'
p200
tp201
bsg31
g47
ssI25
(dp202
g13
I4
sg15
g16
(g17
(I0
tp203
g19
tp204
Rp205
(I1
(I2
tp206
g26
I00
S'\xc0\xc9\xecy\x9c\xfa\x17\xc0\x93\xa8k\x92\xa8&9@'
p207
tp208
bsg31
g47
ssI26
(dp209
g13
I4
sg15
g16
(g17
(I0
tp210
g19
tp211
Rp212
(I1
(I2
tp213
g26
I00
S'b\x97\xea]*\xfc\x10@\x94\xf8\xc8\x18Q\xb37@'
p214
tp215
bsg31
g47
ssI27
(dp216
g13
I5
sg15
g16
(g17
(I0
tp217
g19
tp218
Rp219
(I1
(I2
tp220
g26
I00
S'@\x83\x03m\xb6\x9b\xe4?b\xb9\x9c+\xa0h!@'
p221
tp222
bsg31
g47
ssI28
(dp223
g13
I5
sg15
g16
(g17
(I0
tp224
g19
tp225
Rp226
(I1
(I2
tp227
g26
I00
S'\xf0\x8d\xa1j\xb8\xbd\x16\xc0\x87d\x05\xfd\xfe\x00)@'
p228
tp229
bsg31
g47
ssI29
(dp230
g13
I5
sg15
g16
(g17
(I0
tp231
g19
tp232
Rp233
(I1
(I2
tp234
g26
I00
S'\x88w<\xa1?\xda/\xc0\x8a\x04\xc0\tP\x1a&@'
p235
tp236
bsg31
g47
ssI30
(dp237
g13
I5
sg15
g16
(g17
(I0
tp238
g19
tp239
Rp240
(I1
(I2
tp241
g26
I00
S'\x88w<\xa1?\xda/\xc0r\xdc\xf2\x9a\xe0m\x19@'
p242
tp243
bsg31
g47
ssI31
(dp244
g13
I5
sg15
g16
(g17
(I0
tp245
g19
tp246
Rp247
(I1
(I2
tp248
g26
I00
S'\xf0\x8d\xa1j\xb8\xbd\x16\xc0z\x1ch\xb4\x82\xa0\x13@'
p249
tp250
bsg31
g47
ssI32
(dp251
g13
I6
sg15
g16
(g17
(I0
tp252
g19
tp253
Rp254
(I1
(I2
tp255
g26
I00
S'\x98x\xbf\x12\xd9?*\xc0"\x08\xc7\x16\x88\x81"\xc0'
p256
tp257
bsg31
g47
ssI33
(dp258
g13
I6
sg15
g16
(g17
(I0
tp259
g19
tp260
Rp261
(I1
(I2
tp262
g26
I00
S'\xe2;pW8t3\xc0\xfc\xb9\xbc\x8aR\xd2\x15\xc0'
p263
tp264
bsg31
g47
ssI34
(dp265
g13
I6
sg15
g16
(g17
(I0
tp266
g19
tp267
Rp268
(I1
(I2
tp269
g26
I00
S'*\x14f\r\xea\xb1=\xc0\xf4yGq\xb0\x9f\x1b\xc0'
p270
tp271
bsg31
g47
ssI35
(dp272
g13
I6
sg15
g16
(g17
(I0
tp273
g19
tp274
Rp275
(I1
(I2
tp276
g26
I00
S"*\x14f\r\xea\xb1=\xc0JS\xea\xf473'\xc0"
p277
tp278
bsg31
g47
ssI36
(dp279
g13
I6
sg15
g16
(g17
(I0
tp280
g19
tp281
Rp282
(I1
(I2
tp283
g26
I00
S'\xe2;pW8t3\xc0L\xb3/\xe8\xe6\x19*\xc0'
p284
tp285
bsg31
g47
ssI37
(dp286
g13
I0
sg15
g16
(g17
(I0
tp287
g19
tp288
Rp289
(I1
(I2
tp290
g26
I00
S'\xe8x\xf7#\x93\x9cC@\x8e\x9fho\x94\x05D@'
p291
tp292
bsg31
S'turbine'
p293
ssI38
(dp294
g13
I1
sg15
g16
(g17
(I0
tp295
g19
tp296
Rp297
(I1
(I2
tp298
g26
I00
S'\x067\xe6\x9eo\x80<@\x91\x9e8\xd9\xfd.3@'
p299
tp300
bsg31
g293
ssI39
(dp301
g13
I2
sg15
g16
(g17
(I0
tp302
g19
tp303
Rp304
(I1
(I2
tp305
g26
I00
S'P\x06\xfd\xfdNl7@p\x85L\x99q\x84P@'
p306
tp307
bsg31
g293
ssI40
(dp308
g13
I3
sg15
g16
(g17
(I0
tp309
g19
tp310
Rp311
(I1
(I2
tp312
g26
I00
S':\xed\x979\xf9\xa0)@\xd8K\xd7?D\xe2G@'
p313
tp314
bsg31
g293
ssI41
(dp315
g13
I4
sg15
g16
(g17
(I0
tp316
g19
tp317
Rp318
(I1
(I2
tp319
g26
I00
S"PWSK\xc4\xa6\xf6?'N}\x81\x80\x7f;@"
p320
tp321
bsg31
g293
ssI42
(dp322
g13
I5
sg15
g16
(g17
(I0
tp323
g19
tp324
Rp325
(I1
(I2
tp326
g26
I00
S'\xbe\xa7\xdb\xda\x18\x08!\xc0b\xb9\x9c+\xa0h!@'
p327
tp328
bsg31
g293
ssI43
(dp329
g13
I6
sg15
g16
(g17
(I0
tp330
g19
tp331
Rp332
(I1
(I2
tp333
g26
I00
S'D\xac5\xaa\xd6H6\xc0"\x08\xc7\x16\x88\x81"\xc0'
p334
tp335
bsg31
g293
sssS'graph'
p336
(dp337
sS'nodes'
p338
g0
(cnetworkx.classes.reportviews
NodeView
p339
g2
Ntp340
Rp341
(dp342
S'_nodes'
p343
g11
sbsS'_adj'
p344
(dp345
I0
(dp346
I2
(dp347
S'weight'
p348
cnumpy.core.multiarray
scalar
p349
(g26
S'O\xab\x19\x18 \t\xe5?'
p350
tp351
Rp352
ssI5
(dp353
g348
g349
(g26
S'P\xee\x11*\xe0\xe4\xe8?'
p354
tp355
Rp356
ssI6
(dp357
g348
g349
(g26
S'UsR\r)\xa4\xe3?'
p358
tp359
Rp360
ssI7
(dp361
g348
g349
(g26
S'l\xe4\xd0\x99&P\xe2?'
p362
tp363
Rp364
ssI8
(dp365
g348
g349
(g26
S'@\xeb\x9a\xab\x1eN\xe4?'
p366
tp367
Rp368
ssI11
(dp369
g348
g349
(g26
S'n\xc9\x8e\x9d\x8dZ\xe7?'
p370
tp371
Rp372
ssI22
(dp373
g348
g349
(g26
S'\x04\xff\x13\xe2j!\xef?'
p374
tp375
Rp376
sssI1
(dp377
I32
(dp378
g348
g349
(g26
S'i\x92\x1e\x90K\xce\xe8?'
p379
tp380
Rp381
ssI35
(dp382
g348
g349
(g26
S'\x92\xb0Y5\xa5\xb8\xe7?'
p383
tp384
Rp385
ssI36
(dp386
g348
g349
(g26
S'qw\xcf\xb31\x8b\xe4?'
p387
tp388
Rp389
sssI2
(dp390
I0
g347
sI3
(dp391
g348
g349
(g26
S'\xfa\x8d\x1d;\xf1\x97\xc6?'
p392
tp393
Rp394
ssI6
(dp395
g348
g349
(g26
S'\xfa\x8d\x1d;\xf1\x97\xc6?'
p396
tp397
Rp398
ssI7
(dp399
g348
g349
(g26
S'\x06\x1b93\x1f\xb9\xe9?'
p400
tp401
Rp402
ssI8
(dp403
g348
g349
(g26
S'\\\xc8\xe9\xc6\re\xe6?'
p404
tp405
Rp406
ssI9
(dp407
g348
g349
(g26
S'A\xb8.\xf4\xe5z\xea?'
p408
tp409
Rp410
ssI16
(dp411
g348
g349
(g26
S"n\x97'\nO(\xed?"
p412
tp413
Rp414
sssI3
(dp415
I2
g391
sI4
(dp416
g348
g349
(g26
S'z\x8e\x1d;\xf1\x97\xc6?'
p417
tp418
Rp419
ssI12
(dp420
g348
g349
(g26
S'\xea\xb8Q\x15b4\xeb?'
p421
tp422
Rp423
ssI15
(dp424
g348
g349
(g26
S'kx_\xa4U\x8c\xeb?'
p425
tp426
Rp427
ssI16
(dp428
g348
g349
(g26
S'\xcf\xff\x8d\x9a\xf3\xac\xe7?'
p429
tp430
Rp431
ssI17
(dp432
g348
g349
(g26
S'\xee{P+\x7f\x16\xd7?'
p433
tp434
Rp435
ssI18
(dp436
g348
g349
(g26
S'\xfe\x86\xd1K\x91\xae\xe0?'
p437
tp438
Rp439
ssI21
(dp440
g348
g349
(g26
S'\xbd\xe3W\x0b\x14\xb5\xdb?'
p441
tp442
Rp443
sssI4
(dp444
I3
g416
sI5
(dp445
g348
g349
(g26
S'\x00\x8c\x1d;\xf1\x97\xc6?'
p446
tp447
Rp448
ssI8
(dp449
g348
g349
(g26
S'\x94\x06\xa8\xa3Q[\xe7?'
p450
tp451
Rp452
ssI9
(dp453
g348
g349
(g26
S'\x06\x1b93\x1f\xb9\xe9?'
p454
tp455
Rp456
ssI12
(dp457
g348
g349
(g26
S'\x01\x96\xdaP\xd7~\xec?'
p458
tp459
Rp460
ssI15
(dp461
g348
g349
(g26
S'\x0cw\xb5\xe4)\xf9\xea?'
p462
tp463
Rp464
ssI16
(dp465
g348
g349
(g26
S'\x0bw\xcev\x9c\x19\xe8?'
p466
tp467
Rp468
ssI17
(dp469
g348
g349
(g26
S'\x9cC\x82\xa3|\x8d\xd0?'
p470
tp471
Rp472
ssI18
(dp473
g348
g349
(g26
S'\x13-K8\xb8\xd7\xdb?'
p474
tp475
Rp476
ssI21
(dp477
g348
g349
(g26
S'\xe7s\xba\xd7\xe7a\xd1?'
p478
tp479
Rp480
ssI22
(dp481
g348
g349
(g26
S'\x99\xc2YE\xbe\x19\xe5?'
p482
tp483
Rp484
ssI23
(dp485
g348
g349
(g26
S'\x10\xc8\n\xfcC\xae\xe3?'
p486
tp487
Rp488
ssI24
(dp489
g348
g349
(g26
S'\xc9\xb1\xf2M\x80\xec\xe8?'
p490
tp491
Rp492
sssI5
(dp493
I0
g353
sI4
g445
sI6
(dp494
g348
g349
(g26
S'z\x8e\x1d;\xf1\x97\xc6?'
p495
tp496
Rp497
ssI7
(dp498
g348
g349
(g26
S'\xa1)K\x1d\xa4|\xe6?'
p499
tp500
Rp501
ssI8
(dp502
g348
g349
(g26
S'\xa1-\xef\xc3q\xb5\xe1?'
p503
tp504
Rp505
ssI9
(dp506
g348
g349
(g26
S'~\xc9\xfa\xe4\xc4?\xe4?'
p507
tp508
Rp509
ssI16
(dp510
g348
g349
(g26
S']\xd4\xfc(\xfc\xb6\xed?'
p511
tp512
Rp513
ssI17
(dp514
g348
g349
(g26
S'\xa4\x90\x97\xec\xecW\xda?'
p515
tp516
Rp517
ssI20
(dp518
g348
g349
(g26
S'\xfe\x86\xd1K\x91\xae\xe0?'
p519
tp520
Rp521
ssI21
(dp522
g348
g349
(g26
S'\x03v\x86%7\xb5\xd6?'
p523
tp524
Rp525
ssI22
(dp526
g348
g349
(g26
S'\x18\xf9\x07\x16\xf2\x92\xe0?'
p527
tp528
Rp529
ssI23
(dp530
g348
g349
(g26
S'\x86\xaf\xf4\x1d)b\xe0?'
p531
tp532
Rp533
ssI24
(dp534
g348
g349
(g26
S'\xe4\xeb\xf0 \xa6\xf7\xe5?'
p535
tp536
Rp537
ssI26
(dp538
g348
g349
(g26
S'\xd6\x82\xd6\xc4\x8d2\xe6?'
p539
tp540
Rp541
sssI6
(dp542
I0
g357
sI2
g395
sI5
g494
sI7
(dp543
g348
g349
(g26
S'\x1a\x9c\x91\xe0\xf7\xa8\xe4?'
p544
tp545
Rp546
ssI8
(dp547
g348
g349
(g26
S'Xv\xde\x93`\xec\xe0?'
p548
tp549
Rp550
ssI9
(dp551
g348
g349
(g26
S'\xe3|\xd8 \xe9\xd7\xe4?'
p552
tp553
Rp554
ssI22
(dp555
g348
g349
(g26
S'\xd5d\x9a\xe6\xf4\x94\xe3?'
p556
tp557
Rp558
ssI23
(dp559
g348
g349
(g26
S'7\xc5\xd1Q\x0f\xb5\xe4?'
p560
tp561
Rp562
ssI26
(dp563
g348
g349
(g26
S'\xc9\xb1\xf2M\x80\xec\xe8?'
p564
tp565
Rp566
sssI7
(dp567
I0
g361
sI2
g399
sI5
g498
sI6
g543
sI8
(dp568
g348
g349
(g26
S'\xfa\x8d\x1d;\xf1\x97\xc6?'
p569
tp570
Rp571
ssI11
(dp572
g348
g349
(g26
S'\xfa\x8d\x1d;\xf1\x97\xc6?'
p573
tp574
Rp575
ssI21
(dp576
g348
g349
(g26
S'\xeb\xd3\x85\x1d\xc2\xfb\xef?'
p577
tp578
Rp579
sssI8
(dp580
I0
g365
sI2
g403
sI4
g449
sI5
g502
sI6
g547
sI7
g568
sI9
(dp581
g348
g349
(g26
S'z\x8e\x1d;\xf1\x97\xc6?'
p582
tp583
Rp584
ssI17
(dp585
g348
g349
(g26
S'/\x96ei\x10:\xee?'
p586
tp587
Rp588
ssI20
(dp589
g348
g349
(g26
S'\x00\x0bd?\xbb;\xee?'
p590
tp591
Rp592
ssI21
(dp593
g348
g349
(g26
S'i&%\x9e\n\x90\xea?'
p594
tp595
Rp596
ssI22
(dp597
g348
g349
(g26
S'\x86\xac2\xe7\x9dV\xd8?'
p598
tp599
Rp600
ssI23
(dp601
g348
g349
(g26
S']U\xf2\x06\x89`\xe1?'
p602
tp603
Rp604
ssI26
(dp605
g348
g349
(g26
S'e\xce\xd7A\xfbw\xdc?'
p606
tp607
Rp608
sssI9
(dp609
I2
g407
sI4
g453
sI5
g506
sI6
g551
sI8
g581
sI10
(dp610
g348
g349
(g26
S'\x00\x8c\x1d;\xf1\x97\xc6?'
p611
tp612
Rp613
ssI17
(dp614
g348
g349
(g26
S'\xf5\xbf\x03Q\x0c\x93\xef?'
p615
tp616
Rp617
ssI20
(dp618
g348
g349
(g26
S'3\xfd\xd0\x13\xc1\xe6\xed?'
p619
tp620
Rp621
ssI21
(dp622
g348
g349
(g26
S'ZC\xd14\xef&\xeb?'
p623
tp624
Rp625
ssI22
(dp626
g348
g349
(g26
S'\xe7\xc1\x12\x1c\x03\x1c\xd2?'
p627
tp628
Rp629
ssI23
(dp630
g348
g349
(g26
S'\xefFa\xf9Xg\xdd?'
p631
tp632
Rp633
ssI26
(dp634
g348
g349
(g26
S'-\\\xa3\x8fqm\xd2?'
p635
tp636
Rp637
ssI27
(dp638
g348
g349
(g26
S'\x84\xf4\xe5$r\xcb\xe2?'
p639
tp640
Rp641
ssI28
(dp642
g348
g349
(g26
S'p"%\x1c\xca\xc1\xe1?'
p643
tp644
Rp645
ssI29
(dp646
g348
g349
(g26
S"::\xfc\x11\x14'\xe7?"
p647
tp648
Rp649
sssI10
(dp650
I9
g610
sI11
(dp651
g348
g349
(g26
S'z\x8e\x1d;\xf1\x97\xc6?'
p652
tp653
Rp654
ssI22
(dp655
g348
g349
(g26
S'\x93:` \xde\xed\xdb?'
p656
tp657
Rp658
ssI25
(dp659
g348
g349
(g26
S']U\xf2\x06\x89`\xe1?'
p660
tp661
Rp662
ssI26
(dp663
g348
g349
(g26
S'\x8c\xff\x95\xc2\xb90\xd8?'
p664
tp665
Rp666
ssI27
(dp667
g348
g349
(g26
S'\xb1\xe00\xd3\x96\t\xdd?'
p668
tp669
Rp670
ssI28
(dp671
g348
g349
(g26
S'\x8df\xfcC5\xf7\xdd?'
p672
tp673
Rp674
ssI29
(dp675
g348
g349
(g26
S'\x98\x11\xe6\x8c\xb0\xa0\xe4?'
p676
tp677
Rp678
ssI31
(dp679
g348
g349
(g26
S'\xee\xa2h?b\x15\xe4?'
p680
tp681
Rp682
sssI11
(dp683
I0
g369
sI7
g572
sI10
g651
sI27
(dp684
g348
g349
(g26
S"'\xc0\xdc\xf9a\xfe\xe1?"
p685
tp686
Rp687
ssI28
(dp688
g348
g349
(g26
S'v\xea~o\xab\xb9\xe3?'
p689
tp690
Rp691
ssI31
(dp692
g348
g349
(g26
S"::\xfc\x11\x14'\xe7?"
p693
tp694
Rp695
sssI12
(dp696
I3
g420
sI4
g457
sI13
(dp697
g348
g349
(g26
S'\xfa\x8d\x1d;\xf1\x97\xc6?'
p698
tp699
Rp700
ssI16
(dp701
g348
g349
(g26
S'\xfa\x8d\x1d;\xf1\x97\xc6?'
p702
tp703
Rp704
ssI17
(dp705
g348
g349
(g26
S'\xa0\xb3%\x18\xf0\xb6\xe6?'
p706
tp707
Rp708
ssI18
(dp709
g348
g349
(g26
S'\x04\xd7=e\x8b\x95\xe3?'
p710
tp711
Rp712
sssI13
(dp713
I12
g697
sI14
(dp714
g348
g349
(g26
S'z\x8e\x1d;\xf1\x97\xc6?'
p715
tp716
Rp717
sssI14
(dp718
I18
(dp719
g348
g349
(g26
S',\xe9\xdd\x95"G\xe4?'
p720
tp721
Rp722
ssI19
(dp723
g348
g349
(g26
S'\xa0\xb3%\x18\xf0\xb6\xe6?'
p724
tp725
Rp726
ssI13
g714
sI15
(dp727
g348
g349
(g26
S'\x00\x8c\x1d;\xf1\x97\xc6?'
p728
tp729
Rp730
sssI15
(dp731
I3
g424
sI4
g461
sI14
g727
sI16
(dp732
g348
g349
(g26
S'z\x8e\x1d;\xf1\x97\xc6?'
p733
tp734
Rp735
ssI17
(dp736
g348
g349
(g26
S'u9\x84\xe7\x83s\xe3?'
p737
tp738
Rp739
ssI18
(dp740
g348
g349
(g26
S'\x0fW7\xf9zB\xdd?'
p741
tp742
Rp743
ssI19
(dp744
g348
g349
(g26
S'M*<m6K\xe1?'
p745
tp746
Rp747
sssI16
(dp748
I2
g411
sI3
g428
sI4
g465
sI5
g510
sI12
g701
sI15
g732
sI17
(dp749
g348
g349
(g26
S'j9bM\xb6\x98\xe1?'
p750
tp751
Rp752
ssI18
(dp753
g348
g349
(g26
S'n7\xb334\x11\xdc?'
p754
tp755
Rp756
ssI19
(dp757
g348
g349
(g26
S'\xce!\x10\xa0\xd1C\xe2?'
p758
tp759
Rp760
sssI17
(dp761
I3
g432
sI4
g469
sI5
g514
sI8
g585
sI9
g614
sI12
g705
sI15
g736
sI16
g749
sI18
(dp762
g348
g349
(g26
S'\xfa\x8d\x1d;\xf1\x97\xc6?'
p763
tp764
Rp765
ssI21
(dp766
g348
g349
(g26
S'\xfa\x8d\x1d;\xf1\x97\xc6?'
p767
tp768
Rp769
ssI22
(dp770
g348
g349
(g26
S'm\xa0^\x0c\xd3\x1c\xe9?'
p771
tp772
Rp773
ssI23
(dp774
g348
g349
(g26
S'\xe819\x07\xd0\xe4\xe5?'
p775
tp776
Rp777
ssI24
(dp778
g348
g349
(g26
S'\\l\x98\x98Z\x15\xea?'
p779
tp780
Rp781
sssI18
(dp782
I3
g436
sI4
g473
sI12
g709
sI14
g719
sI15
g740
sI16
g753
sI17
g762
sI19
(dp783
g348
g349
(g26
S'z\x8e\x1d;\xf1\x97\xc6?'
p784
tp785
Rp786
sssI19
(dp787
I14
g723
sI15
g744
sI16
g757
sI18
g783
sI20
(dp788
g348
g349
(g26
S'\x00\x8c\x1d;\xf1\x97\xc6?'
p789
tp790
Rp791
ssI23
(dp792
g348
g349
(g26
S'$\x92\xe5A1\xa7\xe6?'
p793
tp794
Rp795
ssI24
(dp796
g348
g349
(g26
S'm\xa0^\x0c\xd3\x1c\xe9?'
p797
tp798
Rp799
sssI20
(dp800
I5
g518
sI8
g589
sI9
g618
sI19
g788
sI21
(dp801
g348
g349
(g26
S'z\x8e\x1d;\xf1\x97\xc6?'
p802
tp803
Rp804
ssI22
(dp805
g348
g349
(g26
S'\xfcr\xdb\xb9t\xbc\xe5?'
p806
tp807
Rp808
ssI23
(dp809
g348
g349
(g26
S'\xe3\x8b\x80(\xe6\x01\xe1?'
p810
tp811
Rp812
ssI24
(dp813
g348
g349
(g26
S'e\xd16]4\xac\xe3?'
p814
tp815
Rp816
sssI21
(dp817
I3
g440
sI4
g477
sI5
g522
sI7
g576
sI8
g593
sI9
g622
sI17
g766
sI20
g801
sI22
(dp818
g348
g349
(g26
S'wt\xe5\x94\x93\xff\xe3?'
p819
tp820
Rp821
ssI23
(dp822
g348
g349
(g26
S'>\r\xb2T\x9ea\xe0?'
p823
tp824
Rp825
ssI24
(dp826
g348
g349
(g26
S'\xbf\xa7[\x82@p\xe4?'
p827
tp828
Rp829
sssI22
(dp830
I0
g373
sI4
g481
sI5
g526
sI6
g555
sI8
g597
sI9
g626
sI10
g655
sI17
g770
sI20
g805
sI21
g818
sI23
(dp831
g348
g349
(g26
S'\xfa\x8d\x1d;\xf1\x97\xc6?'
p832
tp833
Rp834
ssI26
(dp835
g348
g349
(g26
S'\xfa\x8d\x1d;\xf1\x97\xc6?'
p836
tp837
Rp838
ssI27
(dp839
g348
g349
(g26
S'\xde\xe1\xc0l\xea4\xe7?'
p840
tp841
Rp842
ssI28
(dp843
g348
g349
(g26
S'^\xff\xca\xad\x8b\xf5\xe3?'
p844
tp845
Rp846
ssI29
(dp847
g348
g349
(g26
S'\xc6Xm\xdfP/\xe8?'
p848
tp849
Rp850
sssI23
(dp851
I4
g485
sI5
g530
sI6
g559
sI8
g601
sI9
g630
sI17
g774
sI19
g792
sI20
g809
sI21
g822
sI22
g831
sI24
(dp852
g348
g349
(g26
S'z\x8e\x1d;\xf1\x97\xc6?'
p853
tp854
Rp855
sssI24
(dp856
I4
g489
sI5
g534
sI17
g778
sI19
g796
sI20
g813
sI21
g826
sI23
g852
sI25
(dp857
g348
g349
(g26
S'\x00\x8c\x1d;\xf1\x97\xc6?'
p858
tp859
Rp860
ssI29
(dp861
g348
g349
(g26
S'\xde\xe1\xc0l\xea4\xe7?'
p862
tp863
Rp864
sssI25
(dp865
I10
g659
sI24
g857
sI26
(dp866
g348
g349
(g26
S'z\x8e\x1d;\xf1\x97\xc6?'
p867
tp868
Rp869
ssI27
(dp870
g348
g349
(g26
S'&\xe7f_!\x18\xe4?'
p871
tp872
Rp873
ssI28
(dp874
g348
g349
(g26
S'\xf9\xcc*i`q\xde?'
p875
tp876
Rp877
ssI29
(dp878
g348
g349
(g26
S'\x07\x84@Cr\xbf\xe1?'
p879
tp880
Rp881
sssI26
(dp882
I5
g538
sI6
g563
sI8
g605
sI9
g634
sI10
g663
sI22
g835
sI25
g866
sI27
(dp883
g348
g349
(g26
S'\xbc\r\x1b\xa5\xb7$\xe2?'
p884
tp885
Rp886
ssI28
(dp887
g348
g349
(g26
S'\x13\xbe\xc5\x9a\xeb\xe4\xdc?'
p888
tp889
Rp890
ssI29
(dp891
g348
g349
(g26
S'\x8a\x07\xf9\x03\x92\x89\xe2?'
p892
tp893
Rp894
sssI27
(dp895
I32
(dp896
g348
g349
(g26
S'\x82x*\xebw\xc8\xe6?'
p897
tp898
Rp899
ssI33
(dp900
g348
g349
(g26
S'\xe9~\xe9\x86C\t\xe4?'
p901
tp902
Rp903
ssI9
g638
sI10
g667
sI11
g684
sI22
g839
sI25
g870
sI26
g883
sI28
(dp904
g348
g349
(g26
S'\xfa\x8d\x1d;\xf1\x97\xc6?'
p905
tp906
Rp907
ssI31
(dp908
g348
g349
(g26
S'\xfa\x8d\x1d;\xf1\x97\xc6?'
p909
tp910
Rp911
sssI28
(dp912
I9
g642
sI10
g671
sI11
g688
sI22
g843
sI25
g874
sI26
g887
sI27
g904
sI29
(dp913
g348
g349
(g26
S'z\x8e\x1d;\xf1\x97\xc6?'
p914
tp915
Rp916
sssI29
(dp917
I33
(dp918
g348
g349
(g26
S'b\xeb&?\xd5\xf2\xe3?'
p919
tp920
Rp921
ssI34
(dp922
g348
g349
(g26
S'\x82x*\xebw\xc8\xe6?'
p923
tp924
Rp925
ssI9
g646
sI10
g675
sI22
g847
sI24
g861
sI25
g878
sI26
g891
sI28
g913
sI30
(dp926
g348
g349
(g26
S'\x00\x8c\x1d;\xf1\x97\xc6?'
p927
tp928
Rp929
sssI30
(dp930
I32
(dp931
g348
g349
(g26
S'g>\x8dgY\xd7\xe2?'
p932
tp933
Rp934
ssI33
(dp935
g348
g349
(g26
S'\xcb\t;\x98\x11\xab\xdc?'
p936
tp937
Rp938
ssI34
(dp939
g348
g349
(g26
S'\xe5\xf1\x05\x01\x8d\x84\xe1?'
p940
tp941
Rp942
ssI29
g926
sI31
(dp943
g348
g349
(g26
S'z\x8e\x1d;\xf1\x97\xc6?'
p944
tp945
Rp946
sssI31
(dp947
I32
(dp948
g348
g349
(g26
S"0\xcf'\x13\xc3z\xe1?"
p949
tp950
Rp951
ssI33
(dp952
g348
g349
(g26
S'\xf8P\xb4N\xa3\xd1\xdc?'
p953
tp954
Rp955
ssI34
(dp956
g348
g349
(g26
S'\xc3\x88~=\xb5\xfd\xe2?'
p957
tp958
Rp959
ssI10
g679
sI11
g692
sI27
g908
sI30
g943
ssI32
(dp960
I1
g378
sI36
(dp961
g348
g349
(g26
S'\xfa\x8d\x1d;\xf1\x97\xc6?'
p962
tp963
Rp964
ssI33
(dp965
g348
g349
(g26
S'\xfa\x8d\x1d;\xf1\x97\xc6?'
p966
tp967
Rp968
ssI27
g896
sI30
g931
sI31
g948
ssI33
(dp969
I32
g965
sI34
(dp970
g348
g349
(g26
S'z\x8e\x1d;\xf1\x97\xc6?'
p971
tp972
Rp973
ssI27
g900
sI29
g918
sI30
g935
sI31
g952
ssI34
(dp974
I33
g970
sI35
(dp975
g348
g349
(g26
S'\x00\x8c\x1d;\xf1\x97\xc6?'
p976
tp977
Rp978
ssI29
g922
sI30
g939
sI31
g956
ssI35
(dp979
I1
g382
sI34
g975
sI36
(dp980
g348
g349
(g26
S'z\x8e\x1d;\xf1\x97\xc6?'
p981
tp982
Rp983
sssI36
(dp984
I32
g961
sI1
g386
sI35
g980
ssI37
(dp985
sI38
(dp986
sI39
(dp987
sI40
(dp988
sI41
(dp989
sI42
(dp990
sI43
(dp991
ssS'adjlist_outer_dict_factory'
p992
g7
sb.