ccopy_reg
_reconstructor
p0
(cnetworkx.classes.graph
Graph
p1
c__builtin__
object
p2
Ntp3
Rp4
(dp5
S'adjlist_inner_dict_factory'
p6
c__builtin__
dict
p7
sS'node_dict_factory'
p8
g7
sS'edge_attr_dict_factory'
p9
g7
sS'_node'
p10
(dp11
I0
(dp12
S'related_to'
p13
S'NaN'
p14
sS'pos'
p15
cnumpy.core.multiarray
_reconstruct
p16
(cnumpy
ndarray
p17
(I0
tp18
S'b'
p19
tp20
Rp21
(I1
(I2
tp22
cnumpy
dtype
p23
(S'f8'
p24
I0
I1
tp25
Rp26
(I3
S'<'
p27
NNNI-1
I-1
I0
tp28
bI00
S'r|\xec\xf0\xfbkQ@  \xcc.o\xf19@'
p29
tp30
bsS'description'
p31
S'corner'
p32
ssI1
(dp33
g13
g14
sg15
g16
(g17
(I0
tp34
g19
tp35
Rp36
(I1
(I2
tp37
g26
I00
S'\xb8\xee\x84\xecb\x92-\xc0\xa8\x8bx\x14\x86\xdd=\xc0'
p38
tp39
bsg31
g32
ssI2
(dp40
g13
I0
sg15
g16
(g17
(I0
tp41
g19
tp42
Rp43
(I1
(I2
tp44
g26
I00
S' d\xd4;<ZF@\xc2}\xd6\xf2\x86xD@'
p45
tp46
bsg31
S'countor_point'
p47
ssI3
(dp48
g13
I0
sg15
g16
(g17
(I0
tp49
g19
tp50
Rp51
(I1
(I2
tp52
g26
I00
S'\xad\xdc\x88\x1au0D@4\x8a-`\xbe\xc0E@'
p53
tp54
bsg31
g47
ssI4
(dp55
g13
I0
sg15
g16
(g17
(I0
tp56
g19
tp57
Rp58
(I1
(I2
tp59
g26
I00
S'6.\x98\x11m\xb0@@\x1e\xbbJH`CE@'
p60
tp61
bsg31
g47
ssI5
(dp62
g13
I0
sg15
g16
(g17
(I0
tp63
g19
tp64
Rp65
(I1
(I2
tp66
g26
I00
S'6.\x98\x11m\xb0@@g@b\x9d\xad\xadC@'
p67
tp68
bsg31
g47
ssI6
(dp69
g13
I0
sg15
g16
(g17
(I0
tp70
g19
tp71
Rp72
(I1
(I2
tp73
g26
I00
S'\xad\xdc\x88\x1au0D@Rq\x7f\x85O0C@'
p74
tp75
bsg31
g47
ssI7
(dp76
g13
I1
sg15
g16
(g17
(I0
tp77
g19
tp78
Rp79
(I1
(I2
tp80
g26
I00
S'\x8c]\xc5\xe4\x1e\xdb@@\xb9\xf4\xdd\x8fk\xd03@'
p81
tp82
bsg31
g47
ssI8
(dp83
g13
I1
sg15
g16
(g17
(I0
tp84
g19
tp85
Rp86
(I1
(I2
tp87
g26
I00
S'4\xac\xf3\x86\xafb=@\x9b\r\x8cj\xda`6@'
p88
tp89
bsg31
g47
ssI9
(dp90
g13
I1
sg15
g16
(g17
(I0
tp91
g19
tp92
Rp93
(I1
(I2
tp94
g26
I00
S'FO\x12u\x9fb6@po\xc6:\x1ef5@'
p95
tp96
bsg31
g47
ssI10
(dp97
g13
I1
sg15
g16
(g17
(I0
tp98
g19
tp99
Rp100
(I1
(I2
tp101
g26
I00
S'FO\x12u\x9fb6@\x02z\xf5\xe4\xb8:2@'
p102
tp103
bsg31
g47
ssI11
(dp104
g13
I1
sg15
g16
(g17
(I0
tp105
g19
tp106
Rp107
(I1
(I2
tp108
g26
I00
S'4\xac\xf3\x86\xafb=@\xd8\xdb/\xb5\xfc?1@'
p109
tp110
bsg31
g47
ssI12
(dp111
g13
I2
sg15
g16
(g17
(I0
tp112
g19
tp113
Rp114
(I1
(I2
tp115
g26
I00
S'4\xb4\x10w/\x81<@\x97\x9cr\xceE\xd3P@'
p116
tp117
bsg31
g47
ssI13
(dp118
g13
I2
sg15
g16
(g17
(I0
tp119
g19
tp120
Rp121
(I1
(I2
tp122
g26
I00
S'O\xa5y4\xa1-8@\xd0"\x1e\x85awQ@'
p123
tp124
bsg31
g47
ssI14
(dp125
g13
I2
sg15
g16
(g17
(I0
tp126
g19
tp127
Rp128
(I1
(I2
tp129
g26
I00
S'`H\x98"\x91-1@D\xbb,y\xb28Q@'
p130
tp131
bsg31
g47
ssI15
(dp132
g13
I2
sg15
g16
(g17
(I0
tp133
g19
tp134
Rp135
(I1
(I2
tp136
g26
I00
S'`H\x98"\x91-1@\xe9}\xb8#\xd9mP@'
p137
tp138
bsg31
g47
ssI16
(dp139
g13
I2
sg15
g16
(g17
(I0
tp140
g19
tp141
Rp142
(I1
(I2
tp143
g26
I00
S'O\xa5y4\xa1-8@^\x16\xc7\x17*/P@'
p144
tp145
bsg31
g47
ssI17
(dp146
g13
I3
sg15
g16
(g17
(I0
tp147
g19
tp148
Rp149
(I1
(I2
tp150
g26
I00
S'Vsad\x94\xa01@\x96\xfd\xc7\xcb\xe3aH@'
p151
tp152
bsg31
g47
ssI18
(dp153
g13
I3
sg15
g16
(g17
(I0
tp154
g19
tp155
Rp156
(I1
(I2
tp157
g26
I00
S'\xe2\xc8\x94C\x0c\x9a*@\x07\n\x1f9\x1b\xaaI@'
p158
tp159
bsg31
g47
ssI19
(dp160
g13
I3
sg15
g16
(g17
(I0
tp161
g19
tp162
Rp163
(I1
(I2
tp164
g26
I00
S'\n\x1e\xa4?\xd83\x19@\xf2:<!\xbd,I@'
p165
tp166
bsg31
g47
ssI20
(dp167
g13
I3
sg15
g16
(g17
(I0
tp168
g19
tp169
Rp170
(I1
(I2
tp171
g26
I00
S'\n\x1e\xa4?\xd83\x19@:\xc0Sv\n\x97G@'
p172
tp173
bsg31
g47
ssI21
(dp174
g13
I3
sg15
g16
(g17
(I0
tp175
g19
tp176
Rp177
(I1
(I2
tp178
g26
I00
S'\xe2\xc8\x94C\x0c\x9a*@$\xf1p^\xac\x19G@'
p179
tp180
bsg31
g47
ssI22
(dp181
g13
I4
sg15
g16
(g17
(I0
tp182
g19
tp183
Rp184
(I1
(I2
tp185
g26
I00
S'fb\xaaFp\xc2\x17@\x08\xc7\x80W8<<@'
p186
tp187
bsg31
g47
ssI23
(dp188
g13
I4
sg15
g16
(g17
(I0
tp189
g19
tp190
Rp191
(I1
(I2
tp192
g26
I00
S'P\x9b8\xf1\xdc\xd0\xf9?\xea\xdf.2\xa7\xcc>@'
p193
tp194
bsg31
g47
ssI24
(dp195
g13
I4
sg15
g16
(g17
(I0
tp196
g19
tp197
Rp198
(I1
(I2
tp199
g26
I00
S'\xe4L7\x0b\t\x8c\x15\xc0\xc0Ai\x02\xeb\xd1=@'
p200
tp201
bsg31
g47
ssI25
(dp202
g13
I4
sg15
g16
(g17
(I0
tp203
g19
tp204
Rp205
(I1
(I2
tp206
g26
I00
S'\xe4L7\x0b\t\x8c\x15\xc0RL\x98\xac\x85\xa6:@'
p207
tp208
bsg31
g47
ssI26
(dp209
g13
I4
sg15
g16
(g17
(I0
tp210
g19
tp211
Rp212
(I1
(I2
tp213
g26
I00
S'P\x9b8\xf1\xdc\xd0\xf9?(\xae\xd2|\xc9\xab9@'
p214
tp215
bsg31
g47
ssI27
(dp216
g13
I5
sg15
g16
(g17
(I0
tp217
g19
tp218
Rp219
(I1
(I2
tp220
g26
I00
S'\xb4j\xafq\x05\xf9\x10\xc0+@\xa2\x9b\xb1f"@'
p221
tp222
bsg31
g47
ssI28
(dp223
g13
I5
sg15
g16
(g17
(I0
tp224
g19
tp225
Rp226
(I1
(I2
tp227
g26
I00
S"$\xd3\x05>\x9f#!\xc0\xefq\xfeP\x8f\x87'@"
p228
tp229
bsg31
g47
ssI29
(dp230
g13
I5
sg15
g16
(g17
(I0
tp231
g19
tp232
Rp233
(I1
(I2
tp234
g26
I00
S'\x00\x8d\xc8a\xbf#/\xc0\x995s\xf1\x16\x92%@'
p235
tp236
bsg31
g47
ssI30
(dp237
g13
I5
sg15
g16
(g17
(I0
tp238
g19
tp239
Rp240
(I1
(I2
tp241
g26
I00
S'\x00\x8d\xc8a\xbf#/\xc0z\x95\xa2\x8b\x98v\x1e@'
p242
tp243
bsg31
g47
ssI31
(dp244
g13
I5
sg15
g16
(g17
(I0
tp245
g19
tp246
Rp247
(I1
(I2
tp248
g26
I00
S'$\xd3\x05>\x9f#!\xc0\xd2\x1c\x8c\xcc\xa7\x8b\x1a@'
p249
tp250
bsg31
g47
ssI32
(dp251
g13
I6
sg15
g16
(g17
(I0
tp252
g19
tp253
Rp254
(I1
(I2
tp255
g26
I00
S'\xf4\x859oQ\\2\xc0\xa48\xc8dW\xf9!\xc0'
p256
tp257
bsg31
g47
ssI33
(dp258
g13
I6
sg15
g16
(g17
(I0
tp259
g19
tp260
Rp261
(I1
(I2
tp262
g26
I00
S'\xd8\x94\xd0\xb1\xdf\xaf6\xc0\xc4\r\xd8^\xf3\xb0\x19\xc0'
p263
tp264
bsg31
g47
ssI34
(dp265
g13
I6
sg15
g16
(g17
(I0
tp266
g19
tp267
Rp268
(I1
(I2
tp269
g26
I00
S'\xc8\xf1\xb1\xc3\xef\xaf=\xc0p\x86\xee\x1d\xe4\x9b\x1d\xc0'
p270
tp271
bsg31
g47
ssI35
(dp272
g13
I6
sg15
g16
(g17
(I0
tp273
g19
tp274
Rp275
(I1
(I2
tp276
g26
I00
S'\xc8\xf1\xb1\xc3\xef\xaf=\xc0\x12.\x99\xba\xbc$%\xc0'
p277
tp278
bsg31
g47
ssI36
(dp279
g13
I6
sg15
g16
(g17
(I0
tp280
g19
tp281
Rp282
(I1
(I2
tp283
g26
I00
S"\xd8\x94\xd0\xb1\xdf\xaf6\xc0hj$\x1a5\x1a'\xc0"
p284
tp285
bsg31
g47
ssI37
(dp286
g13
I0
sg15
g16
(g17
(I0
tp287
g19
tp288
Rp289
(I1
(I2
tp290
g26
I00
S'.\xe5j\xea\xcc8C@\xc2}\xd6\xf2\x86xD@'
p291
tp292
bsg31
S'turbine'
p293
ssI38
(dp294
g13
I1
sg15
g16
(g17
(I0
tp295
g19
tp296
Rp297
(I1
(I2
tp298
g26
I00
S'6\xbd\xb7&_s;@\xb9\xf4\xdd\x8fk\xd03@'
p299
tp300
bsg31
g293
ssI39
(dp301
g13
I2
sg15
g16
(g17
(I0
tp302
g19
tp303
Rp304
(I1
(I2
tp305
g26
I00
S'P\xb6=\xd4P>6@\x97\x9cr\xceE\xd3P@'
p306
tp307
bsg31
g293
ssI40
(dp308
g13
I3
sg15
g16
(g17
(I0
tp309
g19
tp310
Rp311
(I1
(I2
tp312
g26
I00
S'\xe5\xea\x1c\x83k\xbb&@\x96\xfd\xc7\xcb\xe3aH@'
p313
tp314
bsg31
g293
ssI41
(dp315
g13
I4
sg15
g16
(g17
(I0
tp316
g19
tp317
Rp318
(I1
(I2
tp319
g26
I00
S'@R\x19J\xa4\x90\xd4\xbf\x08\xc7\x80W8<<@'
p320
tp321
bsg31
g293
ssI42
(dp322
g13
I5
sg15
g16
(g17
(I0
tp323
g19
tp324
Rp325
(I1
(I2
tp326
g26
I00
S' \xb1}\xfe?\x02%\xc0+@\xa2\x9b\xb1f"@'
p327
tp328
bsg31
g293
ssI43
(dp329
g13
I6
sg15
g16
(g17
(I0
tp330
g19
tp331
Rp332
(I1
(I2
tp333
g26
I00
S'\xd6\x83\x0c\x120\x9f8\xc0\xa48\xc8dW\xf9!\xc0'
p334
tp335
bsg31
g293
sssS'graph'
p336
(dp337
sS'nodes'
p338
g0
(cnetworkx.classes.reportviews
NodeView
p339
g2
Ntp340
Rp341
(dp342
S'_nodes'
p343
g11
sbsS'_adj'
p344
(dp345
I0
(dp346
I2
(dp347
sI5
(dp348
sI6
(dp349
sI7
(dp350
sI8
(dp351
sI11
(dp352
ssI1
(dp353
I32
(dp354
sI35
(dp355
sI36
(dp356
ssI2
(dp357
I0
g347
sI3
(dp358
sI6
(dp359
sI7
(dp360
sI8
(dp361
sI9
(dp362
sI16
(dp363
ssI3
(dp364
I2
g358
sI4
(dp365
sI12
(dp366
sI15
(dp367
sI16
(dp368
sI17
(dp369
sI18
(dp370
sI21
(dp371
ssI4
(dp372
I3
g365
sI5
(dp373
sI8
(dp374
sI9
(dp375
sI12
(dp376
sI15
(dp377
sI16
(dp378
sI17
(dp379
sI18
(dp380
sI20
(dp381
sI21
(dp382
sI22
(dp383
sI23
(dp384
sI24
(dp385
sI26
(dp386
ssI5
(dp387
I0
g348
sI4
g373
sI6
(dp388
sI7
(dp389
sI8
(dp390
sI9
(dp391
sI16
(dp392
sI17
(dp393
sI20
(dp394
sI21
(dp395
sI22
(dp396
sI23
(dp397
sI24
(dp398
sI26
(dp399
ssI6
(dp400
I0
g349
sI2
g359
sI5
g388
sI7
(dp401
sI8
(dp402
sI9
(dp403
sI22
(dp404
sI23
(dp405
sI24
(dp406
sI26
(dp407
ssI7
(dp408
I0
g350
sI2
g360
sI5
g389
sI6
g401
sI8
(dp409
sI11
(dp410
ssI8
(dp411
I0
g351
sI2
g361
sI4
g374
sI5
g390
sI6
g402
sI7
g409
sI9
(dp412
sI17
(dp413
sI20
(dp414
sI21
(dp415
sI22
(dp416
sI23
(dp417
sI26
(dp418
ssI9
(dp419
I2
g362
sI4
g375
sI5
g391
sI6
g403
sI8
g412
sI10
(dp420
sI20
(dp421
sI21
(dp422
sI22
(dp423
sI23
(dp424
sI25
(dp425
sI26
(dp426
sI27
(dp427
sI28
(dp428
sI29
(dp429
sI31
(dp430
ssI10
(dp431
I9
g420
sI11
(dp432
sI22
(dp433
sI25
(dp434
sI26
(dp435
sI27
(dp436
sI28
(dp437
sI29
(dp438
sI31
(dp439
ssI11
(dp440
I0
g352
sI7
g410
sI10
g432
sI27
(dp441
sI28
(dp442
sI29
(dp443
sI31
(dp444
ssI12
(dp445
I3
g366
sI4
g376
sI13
(dp446
sI16
(dp447
sI17
(dp448
sI18
(dp449
sI19
(dp450
ssI13
(dp451
I12
g446
sI14
(dp452
ssI14
(dp453
I18
(dp454
sI19
(dp455
sI13
g452
sI15
(dp456
ssI15
(dp457
I3
g367
sI4
g377
sI14
g456
sI16
(dp458
sI17
(dp459
sI18
(dp460
sI19
(dp461
ssI16
(dp462
I2
g363
sI3
g368
sI4
g378
sI5
g392
sI12
g447
sI15
g458
sI17
(dp463
sI18
(dp464
sI19
(dp465
ssI17
(dp466
I3
g369
sI4
g379
sI5
g393
sI8
g413
sI12
g448
sI15
g459
sI16
g463
sI18
(dp467
sI21
(dp468
sI22
(dp469
sI23
(dp470
sI24
(dp471
ssI18
(dp472
I3
g370
sI4
g380
sI12
g449
sI14
g454
sI15
g460
sI16
g464
sI17
g467
sI19
(dp473
ssI19
(dp474
I12
g450
sI14
g455
sI15
g461
sI16
g465
sI18
g473
sI20
(dp475
sI22
(dp476
sI23
(dp477
sI24
(dp478
ssI20
(dp479
I4
g381
sI5
g394
sI8
g414
sI9
g421
sI19
g475
sI21
(dp480
sI22
(dp481
sI23
(dp482
sI24
(dp483
ssI21
(dp484
I3
g371
sI4
g382
sI5
g395
sI8
g415
sI9
g422
sI17
g468
sI20
g480
sI22
(dp485
sI23
(dp486
sI24
(dp487
ssI22
(dp488
I4
g383
sI5
g396
sI6
g404
sI8
g416
sI9
g423
sI10
g433
sI17
g469
sI19
g476
sI20
g481
sI21
g485
sI23
(dp489
sI26
(dp490
sI27
(dp491
sI28
(dp492
sI29
(dp493
ssI23
(dp494
I4
g384
sI5
g397
sI6
g405
sI8
g417
sI9
g424
sI17
g470
sI19
g477
sI20
g482
sI21
g486
sI22
g489
sI24
(dp495
ssI24
(dp496
I4
g385
sI5
g398
sI6
g406
sI17
g471
sI19
g478
sI20
g483
sI21
g487
sI23
g495
sI25
(dp497
sI28
(dp498
sI29
(dp499
ssI25
(dp500
I9
g425
sI10
g434
sI24
g497
sI26
(dp501
sI27
(dp502
sI28
(dp503
sI29
(dp504
ssI26
(dp505
I4
g386
sI5
g399
sI6
g407
sI8
g418
sI9
g426
sI10
g435
sI22
g490
sI25
g501
sI27
(dp506
sI28
(dp507
sI29
(dp508
ssI27
(dp509
I32
(dp510
sI33
(dp511
sI34
(dp512
sI9
g427
sI10
g436
sI11
g441
sI22
g491
sI25
g502
sI26
g506
sI28
(dp513
sI31
(dp514
ssI28
(dp515
I9
g428
sI10
g437
sI11
g442
sI22
g492
sI24
g498
sI25
g503
sI26
g507
sI27
g513
sI29
(dp516
ssI29
(dp517
I32
(dp518
sI33
(dp519
sI34
(dp520
sI9
g429
sI10
g438
sI11
g443
sI22
g493
sI24
g499
sI25
g504
sI26
g508
sI28
g516
sI30
(dp521
ssI30
(dp522
I32
(dp523
sI33
(dp524
sI34
(dp525
sI29
g521
sI31
(dp526
ssI31
(dp527
I32
(dp528
sI33
(dp529
sI34
(dp530
sI9
g430
sI10
g439
sI11
g444
sI27
g514
sI30
g526
ssI32
(dp531
I1
g354
sI36
(dp532
sI33
(dp533
sI27
g510
sI29
g518
sI30
g523
sI31
g528
ssI33
(dp534
I32
g533
sI34
(dp535
sI27
g511
sI29
g519
sI30
g524
sI31
g529
ssI34
(dp536
I33
g535
sI35
(dp537
sI27
g512
sI29
g520
sI30
g525
sI31
g530
ssI35
(dp538
I1
g355
sI34
g537
sI36
(dp539
ssI36
(dp540
I32
g532
sI1
g356
sI35
g539
ssI37
(dp541
sI38
(dp542
sI39
(dp543
sI40
(dp544
sI41
(dp545
sI42
(dp546
sI43
(dp547
ssS'adjlist_outer_dict_factory'
p548
g7
sb.