ccopy_reg
_reconstructor
p0
(cnetworkx.classes.graph
Graph
p1
c__builtin__
object
p2
Ntp3
Rp4
(dp5
S'adjlist_inner_dict_factory'
p6
c__builtin__
dict
p7
sS'node_dict_factory'
p8
g7
sS'edge_attr_dict_factory'
p9
g7
sS'_node'
p10
(dp11
I0
(dp12
S'related_to'
p13
S'NaN'
p14
sS'pos'
p15
cnumpy.core.multiarray
_reconstruct
p16
(cnumpy
ndarray
p17
(I0
tp18
S'b'
p19
tp20
Rp21
(I1
(I2
tp22
cnumpy
dtype
p23
(S'f8'
p24
I0
I1
tp25
Rp26
(I3
S'<'
p27
NNNI-1
I-1
I0
tp28
bI00
S'\x14u\xf4\x0b\x8fyQ@\x90\xb3\x88\xd1\x1e\xe4\x10\xc0'
p29
tp30
bsS'description'
p31
S'corner'
p32
ssI1
(dp33
g13
g14
sg15
g16
(g17
(I0
tp34
g19
tp35
Rp36
(I1
(I2
tp37
g26
I00
S"\x83)'\x85\x91[E@2b\xdb:\x1d\xf0=\xc0"
p38
tp39
bsg31
g32
ssI2
(dp40
g13
g14
sg15
g16
(g17
(I0
tp41
g19
tp42
Rp43
(I1
(I2
tp44
g26
I00
S'\x10\x0f\x96d\xbc\xb3\x08\xc0\xb4k\xe1\xa6\xed0,\xc0'
p45
tp46
bsg31
g32
ssI3
(dp47
g13
g14
sg15
g16
(g17
(I0
tp48
g19
tp49
Rp50
(I1
(I2
tp51
g26
I00
S'N\xd4\xd1/<\xe6=\xc0\xcc\xd8A\xb5Z\x06$@'
p52
tp53
bsg31
g32
ssI4
(dp54
g13
g14
sg15
g16
(g17
(I0
tp55
g19
tp56
Rp57
(I1
(I2
tp58
g26
I00
S'\xc4\x83%\x19\xef,:\xc0\xa7\x1b\xd5C\xe6[J@'
p59
tp60
bsg31
g32
ssI5
(dp61
g13
g14
sg15
g16
(g17
(I0
tp62
g19
tp63
Rp64
(I1
(I2
tp65
g26
I00
S'\xd72\x14\xabE\x13;@\x80\xd8\xb6N\x07|Q@'
p66
tp67
bsg31
g32
ssI6
(dp68
g13
g14
sg15
g16
(g17
(I0
tp69
g19
tp70
Rp71
(I1
(I2
tp72
g26
I00
S'|\xc0\xc1\x92\x8c\x97G@\xcd\xa2\xb2a\x9e:M@'
p73
tp74
bsg31
g32
ssI7
(dp75
g13
I0
sg15
g16
(g17
(I0
tp76
g19
tp77
Rp78
(I1
(I2
tp79
g26
I00
S'\x89\xdc\xed[\x05oO@\xa8f\xa6\xd7c\x81\x05@'
p80
tp81
bsg31
S'countor_point'
p82
ssI8
(dp83
g13
I0
sg15
g16
(g17
(I0
tp84
g19
tp85
Rp86
(I1
(I2
tp87
g26
I00
S'\xd1\x9a\x9b\x12\xb5cN@\xd0\xc4\x90n\x81\xd7\x11@'
p88
tp89
bsg31
g82
ssI9
(dp90
g13
I0
sg15
g16
(g17
(I0
tp91
g19
tp92
Rp93
(I1
(I2
tp94
g26
I00
S'Y/\xaeN/\xb3L@x\xc1\x08\x88\x9eD\x0e@'
p95
tp96
bsg31
g82
ssI10
(dp97
g13
I0
sg15
g16
(g17
(I0
tp98
g19
tp99
Rp100
(I1
(I2
tp101
g26
I00
S'Y/\xaeN/\xb3L@\xa0\x17\x88NR|\xf9?'
p102
tp103
bsg31
g82
ssI11
(dp104
g13
I0
sg15
g16
(g17
(I0
tp105
g19
tp106
Rp107
(I1
(I2
tp108
g26
I00
S'\xd1\x9a\x9b\x12\xb5cN@\xa0\x0e\xadH\x13O\xed?'
p109
tp110
bsg31
g82
ssI12
(dp111
g13
I1
sg15
g16
(g17
(I0
tp112
g19
tp113
Rp114
(I1
(I2
tp115
g26
I00
S'\xd3\xcf(\xf13\xaaM@\xd0\xbeJ\xa5\xf9/\x1c\xc0'
p116
tp117
bsg31
g82
ssI13
(dp118
g13
I1
sg15
g16
(g17
(I0
tp119
g19
tp120
Rp121
(I1
(I2
tp122
g26
I00
S'\x1b\x8e\xd6\xa7\xe3\x9eL@T-\x8d"*\x19\x15\xc0'
p123
tp124
bsg31
g82
ssI14
(dp125
g13
I1
sg15
g16
(g17
(I0
tp126
g19
tp127
Rp128
(I1
(I2
tp129
g26
I00
S'\xa3"\xe9\xe3]\xeeJ@h\x91\x19M\\\xce\x17\xc0'
p130
tp131
bsg31
g82
ssI15
(dp132
g13
I1
sg15
g16
(g17
(I0
tp133
g19
tp134
Rp135
(I1
(I2
tp136
g26
I00
S'\xa3"\xe9\xe3]\xeeJ@\x1e\xf6\xbd~\xcbH \xc0'
p137
tp138
bsg31
g82
ssI16
(dp139
g13
I1
sg15
g16
(g17
(I0
tp140
g19
tp141
Rp142
(I1
(I2
tp143
g26
I00
S'\x1b\x8e\xd6\xa7\xe3\x9eL@((\x04\x94d\xa3!\xc0'
p144
tp145
bsg31
g82
ssI17
(dp146
g13
I2
sg15
g16
(g17
(I0
tp147
g19
tp148
Rp149
(I1
(I2
tp150
g26
I00
S',\xd7\x0e\xcc\xb5\xd3L@\xabL\xaf\xc7\x02\xab-@'
p151
tp152
bsg31
g82
ssI18
(dp153
g13
I2
sg15
g16
(g17
(I0
tp154
g19
tp155
Rp156
(I1
(I2
tp157
g26
I00
S't\x95\xbc\x82e\xc8K@\xb5\n\x87D5\x9b0@'
p158
tp159
bsg31
g82
ssI19
(dp160
g13
I2
sg15
g16
(g17
(I0
tp161
g19
tp162
Rp163
(I1
(I2
tp164
g26
I00
S'\xfc)\xcf\xbe\xdf\x17J@`\xe3\xc7s\xd1\xdb/@'
p165
tp166
bsg31
g82
ssI20
(dp167
g13
I2
sg15
g16
(g17
(I0
tp168
g19
tp169
Rp170
(I1
(I2
tp171
g26
I00
S'\xfc)\xcf\xbe\xdf\x17J@\xf5\xb5\x96\x1b4z+@'
p172
tp173
bsg31
g82
ssI21
(dp174
g13
I2
sg15
g16
(g17
(I0
tp175
g19
tp176
Rp177
(I1
(I2
tp178
g26
I00
S't\x95\xbc\x82e\xc8K@\xeb\x83P\x06\x9b\x1f*@'
p179
tp180
bsg31
g82
ssI22
(dp181
g13
I3
sg15
g16
(g17
(I0
tp182
g19
tp183
Rp184
(I1
(I2
tp185
g26
I00
S'zi\x00\x9b\xa8\x13K@\x92]\x8a\x9e\xec+\x19@'
p186
tp187
bsg31
g82
ssI23
(dp188
g13
I3
sg15
g16
(g17
(I0
tp189
g19
tp190
Rp191
(I1
(I2
tp192
g26
I00
S"\xc3'\xaeQX\x08J@\x88\xf7\xa3\x10^! @"
p193
tp194
bsg31
g82
ssI24
(dp195
g13
I3
sg15
g16
(g17
(I0
tp196
g19
tp197
Rp198
(I1
(I2
tp199
g26
I00
S'J\xbc\xc0\x8d\xd2WH@\xfc\x8a\xbb\xf6\x89\x8d\x1d@'
p200
tp201
bsg31
g82
ssI25
(dp202
g13
I3
sg15
g16
(g17
(I0
tp203
g19
tp204
Rp205
(I1
(I2
tp206
g26
I00
S'J\xbc\xc0\x8d\xd2WH@$0YFO\xca\x14@'
p207
tp208
bsg31
g82
ssI26
(dp209
g13
I3
sg15
g16
(g17
(I0
tp210
g19
tp211
Rp212
(I1
(I2
tp213
g26
I00
S"\xc3'\xaeQX\x08J@\x10\xcc\xcc\x1b\x1d\x15\x12@"
p214
tp215
bsg31
g82
ssI27
(dp216
g13
I4
sg15
g16
(g17
(I0
tp217
g19
tp218
Rp219
(I1
(I2
tp220
g26
I00
S'\t\xa2\xf3\xd5=2I@\xc0]\xb68:U\t\xc0'
p221
tp222
bsg31
g82
ssI28
(dp223
g13
I4
sg15
g16
(g17
(I0
tp224
g19
tp225
Rp226
(I1
(I2
tp227
g26
I00
S'Q`\xa1\x8c\xed&H@\x80uvf6O\xf6\xbf'
p228
tp229
bsg31
g82
ssI29
(dp230
g13
I4
sg15
g16
(g17
(I0
tp231
g19
tp232
Rp233
(I1
(I2
tp234
g26
I00
S'\xd9\xf4\xb3\xc8gvF@\xf0\x02T\x88\xff\x91\x00\xc0'
p235
tp236
bsg31
g82
ssI30
(dp237
g13
I4
sg15
g16
(g17
(I0
tp238
g19
tp239
Rp240
(I1
(I2
tp241
g26
I00
S'\xd9\xf4\xb3\xc8gvF@L\\\x8ct:\x0c\x11\xc0'
p242
tp243
bsg31
g82
ssI31
(dp244
g13
I4
sg15
g16
(g17
(I0
tp245
g19
tp246
Rp247
(I1
(I2
tp248
g26
I00
S'Q`\xa1\x8c\xed&H@`\xc0\x18\x9fl\xc1\x13\xc0'
p249
tp250
bsg31
g82
ssI32
(dp251
g13
I5
sg15
g16
(g17
(I0
tp252
g19
tp253
Rp254
(I1
(I2
tp255
g26
I00
S"\x14\xef,\xff\xc9\x8eG@\xe4\xdf\xd9\x1f\xe9\xdf'\xc0"
p256
tp257
bsg31
g82
ssI33
(dp258
g13
I5
sg15
g16
(g17
(I0
tp259
g19
tp260
Rp261
(I1
(I2
tp262
g26
I00
S'\\\xad\xda\xb5y\x83F@$\x17{^\x81T$\xc0'
p263
tp264
bsg31
g82
ssI34
(dp265
g13
I5
sg15
g16
(g17
(I0
tp266
g19
tp267
Rp268
(I1
(I2
tp269
g26
I00
S'\xe4A\xed\xf1\xf3\xd2D@.I\xc1s\x1a\xaf%\xc0'
p270
tp271
bsg31
g82
ssI35
(dp272
g13
I5
sg15
g16
(g17
(I0
tp273
g19
tp274
Rp275
(I1
(I2
tp276
g26
I00
S'\xe4A\xed\xf1\xf3\xd2D@\x9cv\xf2\xcb\xb7\x10*\xc0'
p277
tp278
bsg31
g82
ssI36
(dp279
g13
I5
sg15
g16
(g17
(I0
tp280
g19
tp281
Rp282
(I1
(I2
tp283
g26
I00
S'\\\xad\xda\xb5y\x83F@\xa4\xa88\xe1Pk+\xc0'
p284
tp285
bsg31
g82
ssI37
(dp286
g13
I6
sg15
g16
(g17
(I0
tp287
g19
tp288
Rp289
(I1
(I2
tp290
g26
I00
S'\xe9\x19%~FIE@\x1ap\xe4\xdcUQ4\xc0'
p291
tp292
bsg31
g82
ssI38
(dp293
g13
I6
sg15
g16
(g17
(I0
tp294
g19
tp295
Rp296
(I1
(I2
tp297
g26
I00
S'2\xd8\xd24\xf6=D@\xba\x0b5\xfc\xa1\x8b2\xc0'
p298
tp299
bsg31
g82
ssI39
(dp300
g13
I6
sg15
g16
(g17
(I0
tp301
g19
tp302
Rp303
(I1
(I2
tp304
g26
I00
S'\xbal\xe5pp\x8dB@\xc0$\xd8\x86\xee83\xc0'
p305
tp306
bsg31
g82
ssI40
(dp307
g13
I6
sg15
g16
(g17
(I0
tp308
g19
tp309
Rp310
(I1
(I2
tp311
g26
I00
S'\xbal\xe5pp\x8dB@v\xbb\xf02\xbdi5\xc0'
p312
tp313
bsg31
g82
ssI41
(dp314
g13
I6
sg15
g16
(g17
(I0
tp315
g19
tp316
Rp317
(I1
(I2
tp318
g26
I00
S'2\xd8\xd24\xf6=D@|\xd4\x93\xbd\t\x176\xc0'
p319
tp320
bsg31
g82
ssI42
(dp321
g13
I7
sg15
g16
(g17
(I0
tp322
g19
tp323
Rp324
(I1
(I2
tp325
g26
I00
S'\xea[\x05\xdf\x8f\xafJ@\xdd\xcfQ\x161\xda;@'
p326
tp327
bsg31
g82
ssI43
(dp328
g13
I7
sg15
g16
(g17
(I0
tp329
g19
tp330
Rp331
(I1
(I2
tp332
g26
I00
S'2\x1a\xb3\x95?\xa4I@=4\x01\xf7\xe4\x9f=@'
p333
tp334
bsg31
g82
ssI44
(dp335
g13
I7
sg15
g16
(g17
(I0
tp336
g19
tp337
Rp338
(I1
(I2
tp339
g26
I00
S'\xba\xae\xc5\xd1\xb9\xf3G@8\x1b^l\x98\xf2<@'
p340
tp341
bsg31
g82
ssI45
(dp342
g13
I7
sg15
g16
(g17
(I0
tp343
g19
tp344
Rp345
(I1
(I2
tp346
g26
I00
S'\xba\xae\xc5\xd1\xb9\xf3G@\x82\x84E\xc0\xc9\xc1:@'
p347
tp348
bsg31
g82
ssI46
(dp349
g13
I7
sg15
g16
(g17
(I0
tp350
g19
tp351
Rp352
(I1
(I2
tp353
g26
I00
S'2\x1a\xb3\x95?\xa4I@}k\xa25}\x14:@'
p354
tp355
bsg31
g82
ssI47
(dp356
g13
I8
sg15
g16
(g17
(I0
tp357
g19
tp358
Rp359
(I1
(I2
tp360
g26
I00
S'\xaa\xd2e\x8d\xad\xd7H@d\xea!\xf3\xad^2@'
p361
tp362
bsg31
g82
ssI48
(dp363
g13
I8
sg15
g16
(g17
(I0
tp364
g19
tp365
Rp366
(I1
(I2
tp367
g26
I00
S'\xf2\x90\x13D]\xccG@\xc4N\xd1\xd3a$4@'
p368
tp369
bsg31
g82
ssI49
(dp370
g13
I8
sg15
g16
(g17
(I0
tp371
g19
tp372
Rp373
(I1
(I2
tp374
g26
I00
S'z%&\x80\xd7\x1bF@\xbf5.I\x15w3@'
p375
tp376
bsg31
g82
ssI50
(dp377
g13
I8
sg15
g16
(g17
(I0
tp378
g19
tp379
Rp380
(I1
(I2
tp381
g26
I00
S'z%&\x80\xd7\x1bF@\n\x9f\x15\x9dFF1@'
p382
tp383
bsg31
g82
ssI51
(dp384
g13
I8
sg15
g16
(g17
(I0
tp385
g19
tp386
Rp387
(I1
(I2
tp388
g26
I00
S'\xf2\x90\x13D]\xccG@\x04\x86r\x12\xfa\x980@'
p389
tp390
bsg31
g82
ssI52
(dp391
g13
I9
sg15
g16
(g17
(I0
tp392
g19
tp393
Rp394
(I1
(I2
tp395
g26
I00
S'\xef&\xea\xe8\x17\x0eG@\x9f\xae\xff\x9b\xcc\x90#@'
p396
tp397
bsg31
g82
ssI53
(dp398
g13
I9
sg15
g16
(g17
(I0
tp399
g19
tp400
Rp401
(I1
(I2
tp402
g26
I00
S"8\xe5\x97\x9f\xc7\x02F@^w^]4\x1c'@"
p403
tp404
bsg31
g82
ssI54
(dp405
g13
I9
sg15
g16
(g17
(I0
tp406
g19
tp407
Rp408
(I1
(I2
tp409
g26
I00
S'\xc0y\xaa\xdbARD@TE\x18H\x9b\xc1%@'
p410
tp411
bsg31
g82
ssI55
(dp412
g13
I9
sg15
g16
(g17
(I0
tp413
g19
tp414
Rp415
(I1
(I2
tp416
g26
I00
S'\xc0y\xaa\xdbARD@\xe9\x17\xe7\xef\xfd_!@'
p417
tp418
bsg31
g82
ssI56
(dp419
g13
I9
sg15
g16
(g17
(I0
tp420
g19
tp421
Rp422
(I1
(I2
tp423
g26
I00
S'8\xe5\x97\x9f\xc7\x02F@\xde\xe5\xa0\xdad\x05 @'
p424
tp425
bsg31
g82
ssI57
(dp426
g13
I10
sg15
g16
(g17
(I0
tp427
g19
tp428
Rp429
(I1
(I2
tp430
g26
I00
S'r\xa4\x95\xc9\x13\x10E@@\x00\x9d\xd1\xf7\xb0\xd4?'
p431
tp432
bsg31
g82
ssI58
(dp433
g13
I10
sg15
g16
(g17
(I0
tp434
g19
tp435
Rp436
(I1
(I2
tp437
g26
I00
S'\xbabC\x80\xc3\x04D@\x08\xc3\xae\xff\xbd\xc3\x00@'
p438
tp439
bsg31
g82
ssI59
(dp440
g13
I10
sg15
g16
(g17
(I0
tp441
g19
tp442
Rp443
(I1
(I2
tp444
g26
I00
S'B\xf7U\xbc=TB@\xc0\xf5+U\xb3\xb2\xf6?'
p445
tp446
bsg31
g82
ssI60
(dp447
g13
I10
sg15
g16
(g17
(I0
tp448
g19
tp449
Rp450
(I1
(I2
tp451
g26
I00
S'B\xf7U\xbc=TB@ \xeb\xba\xd8n\xb4\xe8\xbf'
p452
tp453
bsg31
g82
ssI61
(dp454
g13
I10
sg15
g16
(g17
(I0
tp455
g19
tp456
Rp457
(I1
(I2
tp458
g26
I00
S'\xbabC\x80\xc3\x04D@\xf0\x05\x8f\x16\x00/\xf7\xbf'
p459
tp460
bsg31
g82
ssI62
(dp461
g13
I11
sg15
g16
(g17
(I0
tp462
g19
tp463
Rp464
(I1
(I2
tp465
g26
I00
S'G\x14\xabES^C@\x98-\x03\xe8\x01X \xc0'
p466
tp467
bsg31
g82
ssI63
(dp468
g13
I11
sg15
g16
(g17
(I0
tp469
g19
tp470
Rp471
(I1
(I2
tp472
g26
I00
S'\x8f\xd2X\xfc\x02SB@\xb0\xc9HM4\x99\x19\xc0'
p473
tp474
bsg31
g82
ssI64
(dp475
g13
I11
sg15
g16
(g17
(I0
tp476
g19
tp477
Rp478
(I1
(I2
tp479
g26
I00
S'\x17gk8}\xa2@@\xc4-\xd5wfN\x1c\xc0'
p480
tp481
bsg31
g82
ssI65
(dp482
g13
I11
sg15
g16
(g17
(I0
tp483
g19
tp484
Rp485
(I1
(I2
tp486
g26
I00
S'\x17gk8}\xa2@@N\xc4\x1b\x94\xd0\x88"\xc0'
p487
tp488
bsg31
g82
ssI66
(dp489
g13
I11
sg15
g16
(g17
(I0
tp490
g19
tp491
Rp492
(I1
(I2
tp493
g26
I00
S'\x8f\xd2X\xfc\x02SB@X\xf6a\xa9i\xe3#\xc0'
p494
tp495
bsg31
g82
ssI67
(dp496
g13
I12
sg15
g16
(g17
(I0
tp497
g19
tp498
Rp499
(I1
(I2
tp500
g26
I00
S'#\xd0\xc3\x99\xd7iA@HE(\xc3\xb1\x0e1\xc0'
p501
tp502
bsg31
g82
ssI68
(dp503
g13
I12
sg15
g16
(g17
(I0
tp504
g19
tp505
Rp506
(I1
(I2
tp507
g26
I00
S'k\x8eqP\x87^@@\xd0\xc1\xf1\xc4\xfb\x91.\xc0'
p508
tp509
bsg31
g82
ssI69
(dp510
g13
I12
sg15
g16
(g17
(I0
tp511
g19
tp512
Rp513
(I1
(I2
tp514
g26
I00
S'\xe6E\x08\x19\x03\\=@\xd8\xf37\xda\x94\xec/\xc0'
p515
tp516
bsg31
g82
ssI70
(dp517
g13
I12
sg15
g16
(g17
(I0
tp518
g19
tp519
Rp520
(I1
(I2
tp521
g26
I00
S"\xe6E\x08\x19\x03\\=@\xa2\x904\x19\x19'2\xc0"
p522
tp523
bsg31
g82
ssI71
(dp524
g13
I12
sg15
g16
(g17
(I0
tp525
g19
tp526
Rp527
(I1
(I2
tp528
g26
I00
S'k\x8eqP\x87^@@\xa8\xa9\xd7\xa3e\xd42\xc0'
p529
tp530
bsg31
g82
ssI72
(dp531
g13
I13
sg15
g16
(g17
(I0
tp532
g19
tp533
Rp534
(I1
(I2
tp535
g26
I00
S'\x8eH\x90\xea\x83`H@\x02\x83\xc9\x81\x12\x81D@'
p536
tp537
bsg31
g82
ssI73
(dp538
g13
I13
sg15
g16
(g17
(I0
tp539
g19
tp540
Rp541
(I1
(I2
tp542
g26
I00
S'\xd7\x06>\xa13UG@25!r\xeccE@'
p543
tp544
bsg31
g82
ssI74
(dp545
g13
I13
sg15
g16
(g17
(I0
tp546
g19
tp547
Rp548
(I1
(I2
tp549
g26
I00
S'^\x9bP\xdd\xad\xa4E@\xaf\xa8\xcf,F\rE@'
p550
tp551
bsg31
g82
ssI75
(dp552
g13
I13
sg15
g16
(g17
(I0
tp553
g19
tp554
Rp555
(I1
(I2
tp556
g26
I00
S'^\x9bP\xdd\xad\xa4E@T]\xc3\xd6\xde\xf4C@'
p557
tp558
bsg31
g82
ssI76
(dp559
g13
I13
sg15
g16
(g17
(I0
tp560
g19
tp561
Rp562
(I1
(I2
tp563
g26
I00
S'\xd7\x06>\xa13UG@\xd2\xd0q\x918\x9eC@'
p564
tp565
bsg31
g82
ssI77
(dp566
g13
I14
sg15
g16
(g17
(I0
tp567
g19
tp568
Rp569
(I1
(I2
tp570
g26
I00
S'\x1d\x81\x83%\x19\x7fF@\xa15\x04\xedh\xc1?@'
p571
tp572
bsg31
g82
ssI78
(dp573
g13
I14
sg15
g16
(g17
(I0
tp574
g19
tp575
Rp576
(I1
(I2
tp577
g26
I00
S'f?1\xdc\xc8sE@\x00\xcd\xd9f\x8e\xc3@@'
p578
tp579
bsg31
g82
ssI79
(dp580
g13
I14
sg15
g16
(g17
(I0
tp581
g19
tp582
Rp583
(I1
(I2
tp584
g26
I00
S'\xed\xd3C\x18C\xc3C@~@\x88!\xe8l@@'
p585
tp586
bsg31
g82
ssI80
(dp587
g13
I14
sg15
g16
(g17
(I0
tp588
g19
tp589
Rp590
(I1
(I2
tp591
g26
I00
S'\xed\xd3C\x18C\xc3C@F\xea\xf7\x96\x01\xa9>@'
p592
tp593
bsg31
g82
ssI81
(dp594
g13
I14
sg15
g16
(g17
(I0
tp595
g19
tp596
Rp597
(I1
(I2
tp598
g26
I00
S'f?1\xdc\xc8sE@A\xd1T\x0c\xb5\xfb=@'
p599
tp600
bsg31
g82
ssI82
(dp601
g13
I15
sg15
g16
(g17
(I0
tp602
g19
tp603
Rp604
(I1
(I2
tp605
g26
I00
S'\x9b_x\xccP|D@\xc92Y\xeb\x9b\xf35@'
p606
tp607
bsg31
g82
ssI83
(dp608
g13
I15
sg15
g16
(g17
(I0
tp609
g19
tp610
Rp611
(I1
(I2
tp612
g26
I00
S'\xe4\x1d&\x83\x00qC@)\x97\x08\xccO\xb97@'
p613
tp614
bsg31
g82
ssI84
(dp615
g13
I15
sg15
g16
(g17
(I0
tp616
g19
tp617
Rp618
(I1
(I2
tp619
g26
I00
S'k\xb28\xbfz\xc0A@$~eA\x03\x0c7@'
p620
tp621
bsg31
g82
ssI85
(dp622
g13
I15
sg15
g16
(g17
(I0
tp623
g19
tp624
Rp625
(I1
(I2
tp626
g26
I00
S'k\xb28\xbfz\xc0A@n\xe7L\x954\xdb4@'
p627
tp628
bsg31
g82
ssI86
(dp629
g13
I15
sg15
g16
(g17
(I0
tp630
g19
tp631
Rp632
(I1
(I2
tp633
g26
I00
S'\xe4\x1d&\x83\x00qC@i\xce\xa9\n\xe8-4@'
p634
tp635
bsg31
g82
ssI87
(dp636
g13
I16
sg15
g16
(g17
(I0
tp637
g19
tp638
Rp639
(I1
(I2
tp640
g26
I00
S'\xe6R\xb3a\x7f\xb7B@h?n\x8c\xa8\xba*@'
p641
tp642
bsg31
g82
ssI88
(dp643
g13
I16
sg15
g16
(g17
(I0
tp644
g19
tp645
Rp646
(I1
(I2
tp647
g26
I00
S'.\x11a\x18/\xacA@(\x08\xcdM\x10F.@'
p648
tp649
bsg31
g82
ssI89
(dp650
g13
I16
sg15
g16
(g17
(I0
tp651
g19
tp652
Rp653
(I1
(I2
tp654
g26
I00
S'kK\xe7\xa8R\xf7?@\x1e\xd6\x868w\xeb,@'
p655
tp656
bsg31
g82
ssI90
(dp657
g13
I16
sg15
g16
(g17
(I0
tp658
g19
tp659
Rp660
(I1
(I2
tp661
g26
I00
S'kK\xe7\xa8R\xf7?@\xb2\xa8U\xe0\xd9\x89(@'
p662
tp663
bsg31
g82
ssI91
(dp664
g13
I16
sg15
g16
(g17
(I0
tp665
g19
tp666
Rp667
(I1
(I2
tp668
g26
I00
S".\x11a\x18/\xacA@\xa8v\x0f\xcb@/'@"
p669
tp670
bsg31
g82
ssI92
(dp671
g13
I17
sg15
g16
(g17
(I0
tp672
g19
tp673
Rp674
(I1
(I2
tp675
g26
I00
S'\xa5\xc9\x13\x10\x9d\xdf@@\x0e>\xa1\xbe`r\x10@'
p676
tp677
bsg31
g82
ssI93
(dp678
g13
I17
sg15
g16
(g17
(I0
tp679
g19
tp680
Rp681
(I1
(I2
tp682
g26
I00
S'\xdc\x0f\x83\x8d\x99\xa8?@\x90\xcf^A0\x89\x17@'
p683
tp684
bsg31
g82
ssI94
(dp685
g13
I17
sg15
g16
(g17
(I0
tp686
g19
tp687
Rp688
(I1
(I2
tp689
g26
I00
S'\xeb8\xa8\x05\x8eG<@|k\xd2\x16\xfe\xd3\x14@'
p690
tp691
bsg31
g82
ssI95
(dp692
g13
I17
sg15
g16
(g17
(I0
tp693
g19
tp694
Rp695
(I1
(I2
tp696
g26
I00
S'\xeb8\xa8\x05\x8eG<@H!\xe0\xcc\x86!\x08@'
p697
tp698
bsg31
g82
ssI96
(dp699
g13
I17
sg15
g16
(g17
(I0
tp700
g19
tp701
Rp702
(I1
(I2
tp703
g26
I00
S'\xdc\x0f\x83\x8d\x99\xa8?@ Y\xc7w"\xb7\x02@'
p704
tp705
bsg31
g82
ssI97
(dp706
g13
I18
sg15
g16
(g17
(I0
tp707
g19
tp708
Rp709
(I1
(I2
tp710
g26
I00
S'B\xf6w1\xa8H>@@\xff22\xb8\xb7\x11\xc0'
p711
tp712
bsg31
g82
ssI98
(dp713
g13
I18
sg15
g16
(g17
(I0
tp714
g19
tp715
Rp716
(I1
(I2
tp717
g26
I00
S'\xd2r\xd3\x9e\x072<@\x80\xdb\xea^\xd1A\x05\xc0'
p718
tp719
bsg31
g82
ssI99
(dp720
g13
I18
sg15
g16
(g17
(I0
tp721
g19
tp722
Rp723
(I1
(I2
tp724
g26
I00
S'\xe2\x9b\xf8\x16\xfc\xd08@\xb0\xa3\x03\xb45\xac\n\xc0'
p725
tp726
bsg31
g82
ssI100
(dp727
g13
I18
sg15
g16
(g17
(I0
tp728
g19
tp729
Rp730
(I1
(I2
tp731
g26
I00
S'\xe2\x9b\xf8\x16\xfc\xd08@\xb0,d\x8aU\x19\x16\xc0'
p732
tp733
bsg31
g82
ssI101
(dp734
g13
I18
sg15
g16
(g17
(I0
tp735
g19
tp736
Rp737
(I1
(I2
tp738
g26
I00
S'\xd2r\xd3\x9e\x072<@\xc4\x90\xf0\xb4\x87\xce\x18\xc0'
p739
tp740
bsg31
g82
ssI102
(dp741
g13
I19
sg15
g16
(g17
(I0
tp742
g19
tp743
Rp744
(I1
(I2
tp745
g26
I00
S'\x0eg^\xa7\xd2\x85:@\x04 7FT]+\xc0'
p746
tp747
bsg31
g82
ssI103
(dp748
g13
I19
sg15
g16
(g17
(I0
tp749
g19
tp750
Rp751
(I1
(I2
tp752
g26
I00
S"\x9f\xe3\xb9\x142o8@BW\xd8\x84\xec\xd1'\xc0"
p753
tp754
bsg31
g82
ssI104
(dp755
g13
I19
sg15
g16
(g17
(I0
tp756
g19
tp757
Rp758
(I1
(I2
tp759
g26
I00
S'\xaf\x0c\xdf\x8c&\x0e5@L\x89\x1e\x9a\x85,)\xc0'
p760
tp761
bsg31
g82
ssI105
(dp762
g13
I19
sg15
g16
(g17
(I0
tp763
g19
tp764
Rp765
(I1
(I2
tp766
g26
I00
S'\xaf\x0c\xdf\x8c&\x0e5@\xb4\xb6O\xf2"\x8e-\xc0'
p767
tp768
bsg31
g82
ssI106
(dp769
g13
I19
sg15
g16
(g17
(I0
tp770
g19
tp771
Rp772
(I1
(I2
tp773
g26
I00
S'\x9f\xe3\xb9\x142o8@\xc4\xe8\x95\x07\xbc\xe8.\xc0'
p774
tp775
bsg31
g82
ssI107
(dp776
g13
I20
sg15
g16
(g17
(I0
tp777
g19
tp778
Rp779
(I1
(I2
tp780
g26
I00
S'\xb6.kl=\x87E@\x80X#5\x15SJ@'
p781
tp782
bsg31
g82
ssI108
(dp783
g13
I20
sg15
g16
(g17
(I0
tp784
g19
tp785
Rp786
(I1
(I2
tp787
g26
I00
S'\xfe\xec\x18#\xed{D@\xb0\n{%\xef5K@'
p788
tp789
bsg31
g82
ssI109
(dp790
g13
I20
sg15
g16
(g17
(I0
tp791
g19
tp792
Rp793
(I1
(I2
tp794
g26
I00
S'\x86\x81+_g\xcbB@-~)\xe0H\xdfJ@'
p795
tp796
bsg31
g82
ssI110
(dp797
g13
I20
sg15
g16
(g17
(I0
tp798
g19
tp799
Rp800
(I1
(I2
tp801
g26
I00
S'\x86\x81+_g\xcbB@\xd22\x1d\x8a\xe1\xc6I@'
p802
tp803
bsg31
g82
ssI111
(dp804
g13
I20
sg15
g16
(g17
(I0
tp805
g19
tp806
Rp807
(I1
(I2
tp808
g26
I00
S'\xfe\xec\x18#\xed{D@P\xa6\xcbD;pI@'
p809
tp810
bsg31
g82
ssI112
(dp811
g13
I21
sg15
g16
(g17
(I0
tp812
g19
tp813
Rp814
(I1
(I2
tp815
g26
I00
S'\xc4\x1a[\xcf\x8d\xe8C@\x7f\xee\x83\xf5\x1b`F@'
p816
tp817
bsg31
g82
ssI113
(dp818
g13
I21
sg15
g16
(g17
(I0
tp819
g19
tp820
Rp821
(I1
(I2
tp822
g26
I00
S'\r\xd9\x08\x86=\xddB@\xaf\xa0\xdb\xe5\xf5BG@'
p823
tp824
bsg31
g82
ssI114
(dp825
g13
I21
sg15
g16
(g17
(I0
tp826
g19
tp827
Rp828
(I1
(I2
tp829
g26
I00
S'\x94m\x1b\xc2\xb7,A@,\x14\x8a\xa0O\xecF@'
p830
tp831
bsg31
g82
ssI115
(dp832
g13
I21
sg15
g16
(g17
(I0
tp833
g19
tp834
Rp835
(I1
(I2
tp836
g26
I00
S'\x94m\x1b\xc2\xb7,A@\xd2\xc8}J\xe8\xd3E@'
p837
tp838
bsg31
g82
ssI116
(dp839
g13
I21
sg15
g16
(g17
(I0
tp840
g19
tp841
Rp842
(I1
(I2
tp843
g26
I00
S'\r\xd9\x08\x86=\xddB@O<,\x05B}E@'
p844
tp845
bsg31
g82
ssI117
(dp846
g13
I22
sg15
g16
(g17
(I0
tp847
g19
tp848
Rp849
(I1
(I2
tp850
g26
I00
S'W\xf2\x04D\xe7\x0bB@\xc6\xba\xb0\tj\x9fA@'
p851
tp852
bsg31
g82
ssI118
(dp853
g13
I22
sg15
g16
(g17
(I0
tp854
g19
tp855
Rp856
(I1
(I2
tp857
g26
I00
S'\xa0\xb0\xb2\xfa\x96\x00A@\xf6l\x08\xfaC\x82B@'
p858
tp859
bsg31
g82
ssI119
(dp860
g13
I22
sg15
g16
(g17
(I0
tp861
g19
tp862
Rp863
(I1
(I2
tp864
g26
I00
S'O\x8a\x8am"\xa0>@t\xe0\xb6\xb4\x9d+B@'
p865
tp866
bsg31
g82
ssI120
(dp867
g13
I22
sg15
g16
(g17
(I0
tp868
g19
tp869
Rp870
(I1
(I2
tp871
g26
I00
S'O\x8a\x8am"\xa0>@\x19\x95\xaa^6\x13A@'
p872
tp873
bsg31
g82
ssI121
(dp874
g13
I22
sg15
g16
(g17
(I0
tp875
g19
tp876
Rp877
(I1
(I2
tp878
g26
I00
S'\xa0\xb0\xb2\xfa\x96\x00A@\x96\x08Y\x19\x90\xbc@@'
p879
tp880
bsg31
g82
ssI122
(dp881
g13
I23
sg15
g16
(g17
(I0
tp882
g19
tp883
Rp884
(I1
(I2
tp885
g26
I00
S'\xe2\x8bAE\xb8%@@\xb8\x1a\x82v\xb4\xe09@'
p886
tp887
bsg31
g82
ssI123
(dp888
g13
I23
sg15
g16
(g17
(I0
tp889
g19
tp890
Rp891
(I1
(I2
tp892
g26
I00
S'T\x94\xde\xf7\xcf4>@\x18\x7f1Wh\xa6;@'
p893
tp894
bsg31
g82
ssI124
(dp895
g13
I23
sg15
g16
(g17
(I0
tp896
g19
tp897
Rp898
(I1
(I2
tp899
g26
I00
S'd\xbd\x03p\xc4\xd3:@\x12f\x8e\xcc\x1b\xf9:@'
p900
tp901
bsg31
g82
ssI125
(dp902
g13
I23
sg15
g16
(g17
(I0
tp903
g19
tp904
Rp905
(I1
(I2
tp906
g26
I00
S'd\xbd\x03p\xc4\xd3:@]\xcfu M\xc88@'
p907
tp908
bsg31
g82
ssI126
(dp909
g13
I23
sg15
g16
(g17
(I0
tp910
g19
tp911
Rp912
(I1
(I2
tp913
g26
I00
S'T\x94\xde\xf7\xcf4>@X\xb6\xd2\x95\x00\x1b8@'
p914
tp915
bsg31
g82
ssI127
(dp916
g13
I24
sg15
g16
(g17
(I0
tp917
g19
tp918
Rp919
(I1
(I2
tp920
g26
I00
S'a<f(V\xcb<@\xaf\xf6\xab-g\x1b1@'
p921
tp922
bsg31
g82
ssI128
(dp923
g13
I24
sg15
g16
(g17
(I0
tp924
g19
tp925
Rp926
(I1
(I2
tp927
g26
I00
S'\xf2\xb8\xc1\x95\xb5\xb4:@\x0f[[\x0e\x1b\xe12@'
p928
tp929
bsg31
g82
ssI129
(dp930
g13
I24
sg15
g16
(g17
(I0
tp931
g19
tp932
Rp933
(I1
(I2
tp934
g26
I00
S'\x01\xe2\xe6\r\xaaS7@\nB\xb8\x83\xce32@'
p935
tp936
bsg31
g82
ssI130
(dp937
g13
I24
sg15
g16
(g17
(I0
tp938
g19
tp939
Rp940
(I1
(I2
tp941
g26
I00
S'\x01\xe2\xe6\r\xaaS7@U\xab\x9f\xd7\xff\x020@'
p942
tp943
bsg31
g82
ssI131
(dp944
g13
I24
sg15
g16
(g17
(I0
tp945
g19
tp946
Rp947
(I1
(I2
tp948
g26
I00
S'\xf2\xb8\xc1\x95\xb5\xb4:@\x9f$\xf9\x99f\xab.@'
p949
tp950
bsg31
g82
ssI132
(dp951
g13
I25
sg15
g16
(g17
(I0
tp952
g19
tp953
Rp954
(I1
(I2
tp955
g26
I00
S'\x9c\xe4n\xdf*89@\xfe\x99t\\\xacj\x1f@'
p956
tp957
bsg31
g82
ssI133
(dp958
g13
I25
sg15
g16
(g17
(I0
tp959
g19
tp960
Rp961
(I1
(I2
tp962
g26
I00
S'-a\xcaL\x8a!7@\xbe\x15\x99\xef\xbd@#@'
p963
tp964
bsg31
g82
ssI134
(dp965
g13
I25
sg15
g16
(g17
(I0
tp966
g19
tp967
Rp968
(I1
(I2
tp969
g26
I00
S'=\x8a\xef\xc4~\xc03@\xb4\xe3R\xda$\xe6!@'
p970
tp971
bsg31
g82
ssI135
(dp972
g13
I25
sg15
g16
(g17
(I0
tp973
g19
tp974
Rp975
(I1
(I2
tp976
g26
I00
S'=\x8a\xef\xc4~\xc03@\x90lC\x04\x0f\t\x1b@'
p977
tp978
bsg31
g82
ssI136
(dp979
g13
I25
sg15
g16
(g17
(I0
tp980
g19
tp981
Rp982
(I1
(I2
tp983
g26
I00
S'-a\xcaL\x8a!7@|\x08\xb7\xd9\xdcS\x18@'
p984
tp985
bsg31
g82
ssI137
(dp986
g13
I26
sg15
g16
(g17
(I0
tp987
g19
tp988
Rp989
(I1
(I2
tp990
g26
I00
S'\x90c\xeb\xb9\x11)5@0`09P"\xf0\xbf'
p991
tp992
bsg31
g82
ssI138
(dp993
g13
I26
sg15
g16
(g17
(I0
tp994
g19
tp995
Rp996
(I1
(I2
tp997
g26
I00
S" \xe0F'q\x123@\xa0\xcb\x8b\xa3\xdbq\xe8?"
p998
tp999
bsg31
g82
ssI139
(dp1000
g13
I26
sg15
g16
(g17
(I0
tp1001
g19
tp1002
Rp1003
(I1
(I2
tp1004
g26
I00
S'`\x12\xd8>\xcbb/@\x00XEyRB\xb6?'
p1005
tp1006
bsg31
g82
ssI140
(dp1007
g13
I26
sg15
g16
(g17
(I0
tp1008
g19
tp1009
Rp1010
(I1
(I2
tp1011
g26
I00
S'`\x12\xd8>\xcbb/@\xf0\x8a\xfa\xccb\xd4\x00\xc0'
p1012
tp1013
bsg31
g82
ssI141
(dp1014
g13
I26
sg15
g16
(g17
(I0
tp1015
g19
tp1016
Rp1017
(I1
(I2
tp1018
g26
I00
S' \xe0F\'q\x123@\x18S\x13"\xc7>\x06\xc0'
p1019
tp1020
bsg31
g82
ssI142
(dp1021
g13
I27
sg15
g16
(g17
(I0
tp1022
g19
tp1023
Rp1024
(I1
(I2
tp1025
g26
I00
S'$Ja\xe4n\x9f1@Rm`\x0em\xd5#\xc0'
p1026
tp1027
bsg31
g82
ssI143
(dp1028
g13
I27
sg15
g16
(g17
(I0
tp1029
g19
tp1030
Rp1031
(I1
(I2
tp1032
g26
I00
S'j\x8dy\xa3\x9c\x11/@\x92\xa4\x01M\x05J \xc0'
p1033
tp1034
bsg31
g82
ssI144
(dp1035
g13
I27
sg15
g16
(g17
(I0
tp1036
g19
tp1037
Rp1038
(I1
(I2
tp1039
g26
I00
S'\x8a\xdf\xc3\x93\x85O(@\x9c\xd6Gb\x9e\xa4!\xc0'
p1040
tp1041
bsg31
g82
ssI145
(dp1042
g13
I27
sg15
g16
(g17
(I0
tp1043
g19
tp1044
Rp1045
(I1
(I2
tp1046
g26
I00
S'\x8a\xdf\xc3\x93\x85O(@\x08\x04y\xba;\x06&\xc0'
p1047
tp1048
bsg31
g82
ssI146
(dp1049
g13
I27
sg15
g16
(g17
(I0
tp1050
g19
tp1051
Rp1052
(I1
(I2
tp1053
g26
I00
S"j\x8dy\xa3\x9c\x11/@\x126\xbf\xcf\xd4`'\xc0"
p1054
tp1055
bsg31
g82
ssI147
(dp1056
g13
I28
sg15
g16
(g17
(I0
tp1057
g19
tp1058
Rp1059
(I1
(I2
tp1060
g26
I00
S'\xc5\xf2\x9f\xec\x8a[A@,\xee\x1f\xc2\xac\xa7L@'
p1061
tp1062
bsg31
g82
ssI148
(dp1063
g13
I28
sg15
g16
(g17
(I0
tp1064
g19
tp1065
Rp1066
(I1
(I2
tp1067
g26
I00
S'\x0e\xb1M\xa3:P@@\\\xa0w\xb2\x86\x8aM@'
p1068
tp1069
bsg31
g82
ssI149
(dp1070
g13
I28
sg15
g16
(g17
(I0
tp1071
g19
tp1072
Rp1073
(I1
(I2
tp1074
g26
I00
S'*\x8b\xc0\xbei?=@\xda\x13&m\xe03M@'
p1075
tp1076
bsg31
g82
ssI150
(dp1077
g13
I28
sg15
g16
(g17
(I0
tp1078
g19
tp1079
Rp1080
(I1
(I2
tp1081
g26
I00
S'*\x8b\xc0\xbei?=@~\xc8\x19\x17y\x1bL@'
p1082
tp1083
bsg31
g82
ssI151
(dp1084
g13
I28
sg15
g16
(g17
(I0
tp1085
g19
tp1086
Rp1087
(I1
(I2
tp1088
g26
I00
S'\x0e\xb1M\xa3:P@@\xfc;\xc8\xd1\xd2\xc4K@'
p1089
tp1090
bsg31
g82
ssI152
(dp1091
g13
I29
sg15
g16
(g17
(I0
tp1092
g19
tp1093
Rp1094
(I1
(I2
tp1095
g26
I00
S'W\x0fg^\xa7\x12@@]y\x11|\n\xe4G@'
p1096
tp1097
bsg31
g82
ssI153
(dp1098
g13
I29
sg15
g16
(g17
(I0
tp1099
g19
tp1100
Rp1101
(I1
(I2
tp1102
g26
I00
S'?\x9b)*\xae\x0e>@\x8e+il\xe4\xc6H@'
p1103
tp1104
bsg31
g82
ssI154
(dp1105
g13
I29
sg15
g16
(g17
(I0
tp1106
g19
tp1107
Rp1108
(I1
(I2
tp1109
g26
I00
S"N\xc4N\xa2\xa2\xad:@\x0b\x9f\x17'>pH@"
p1110
tp1111
bsg31
g82
ssI155
(dp1112
g13
I29
sg15
g16
(g17
(I0
tp1113
g19
tp1114
Rp1115
(I1
(I2
tp1116
g26
I00
S'N\xc4N\xa2\xa2\xad:@\xb0S\x0b\xd1\xd6WG@'
p1117
tp1118
bsg31
g82
ssI156
(dp1119
g13
I29
sg15
g16
(g17
(I0
tp1120
g19
tp1121
Rp1122
(I1
(I2
tp1123
g26
I00
S'?\x9b)*\xae\x0e>@-\xc7\xb9\x8b0\x01G@'
p1124
tp1125
bsg31
g82
ssI157
(dp1126
g13
I30
sg15
g16
(g17
(I0
tp1127
g19
tp1128
Rp1129
(I1
(I2
tp1130
g26
I00
S'\xf8\xf7\xe3\xd36\x87;@[R\x05\xcb\x9cFC@'
p1131
tp1132
bsg31
g82
ssI158
(dp1133
g13
I30
sg15
g16
(g17
(I0
tp1134
g19
tp1135
Rp1136
(I1
(I2
tp1137
g26
I00
S'\x88t?A\x96p9@\x8a\x04]\xbbv)D@'
p1138
tp1139
bsg31
g82
ssI159
(dp1140
g13
I30
sg15
g16
(g17
(I0
tp1141
g19
tp1142
Rp1143
(I1
(I2
tp1144
g26
I00
S'\x98\x9dd\xb9\x8a\x0f6@\x08x\x0bv\xd0\xd2C@'
p1145
tp1146
bsg31
g82
ssI160
(dp1147
g13
I30
sg15
g16
(g17
(I0
tp1148
g19
tp1149
Rp1150
(I1
(I2
tp1151
g26
I00
S'\x98\x9dd\xb9\x8a\x0f6@\xae,\xff\x1fi\xbaB@'
p1152
tp1153
bsg31
g82
ssI161
(dp1154
g13
I30
sg15
g16
(g17
(I0
tp1155
g19
tp1156
Rp1157
(I1
(I2
tp1158
g26
I00
S'\x88t?A\x96p9@+\xa0\xad\xda\xc2cB@'
p1159
tp1160
bsg31
g82
ssI162
(dp1161
g13
I31
sg15
g16
(g17
(I0
tp1162
g19
tp1163
Rp1164
(I1
(I2
tp1165
g26
I00
S'\xd9a\x7f\x17\x83\xea7@G\xe5/#\x83{=@'
p1166
tp1167
bsg31
g82
ssI163
(dp1168
g13
I31
sg15
g16
(g17
(I0
tp1169
g19
tp1170
Rp1171
(I1
(I2
tp1172
g26
I00
S'j\xde\xda\x84\xe2\xd35@\xa7I\xdf\x037A?@'
p1173
tp1174
bsg31
g82
ssI164
(dp1175
g13
I31
sg15
g16
(g17
(I0
tp1176
g19
tp1177
Rp1178
(I1
(I2
tp1179
g26
I00
S'z\x07\x00\xfd\xd6r2@\xa20<y\xea\x93>@'
p1180
tp1181
bsg31
g82
ssI165
(dp1182
g13
I31
sg15
g16
(g17
(I0
tp1183
g19
tp1184
Rp1185
(I1
(I2
tp1186
g26
I00
S'z\x07\x00\xfd\xd6r2@\xec\x99#\xcd\x1bc<@'
p1187
tp1188
bsg31
g82
ssI166
(dp1189
g13
I31
sg15
g16
(g17
(I0
tp1190
g19
tp1191
Rp1192
(I1
(I2
tp1193
g26
I00
S'j\xde\xda\x84\xe2\xd35@\xe7\x80\x80B\xcf\xb5;@'
p1194
tp1195
bsg31
g82
ssI167
(dp1196
g13
I32
sg15
g16
(g17
(I0
tp1197
g19
tp1198
Rp1199
(I1
(I2
tp1200
g26
I00
S'w\x86b\xb5hj4@?\xc1Y\xda5\xb64@'
p1201
tp1202
bsg31
g82
ssI168
(dp1203
g13
I32
sg15
g16
(g17
(I0
tp1204
g19
tp1205
Rp1206
(I1
(I2
tp1207
g26
I00
S'\x08\x03\xbe"\xc8S2@\x9f%\t\xbb\xe9{6@'
p1208
tp1209
bsg31
g82
ssI169
(dp1210
g13
I32
sg15
g16
(g17
(I0
tp1211
g19
tp1212
Rp1213
(I1
(I2
tp1214
g26
I00
S'.X\xc65y\xe5-@\x9a\x0cf0\x9d\xce5@'
p1215
tp1216
bsg31
g82
ssI170
(dp1217
g13
I32
sg15
g16
(g17
(I0
tp1218
g19
tp1219
Rp1220
(I1
(I2
tp1221
g26
I00
S'.X\xc65y\xe5-@\xe4uM\x84\xce\x9d3@'
p1222
tp1223
bsg31
g82
ssI171
(dp1224
g13
I32
sg15
g16
(g17
(I0
tp1225
g19
tp1226
Rp1227
(I1
(I2
tp1228
g26
I00
S'\x08\x03\xbe"\xc8S2@\xdf\\\xaa\xf9\x81\xf02@'
p1229
tp1230
bsg31
g82
ssI172
(dp1231
g13
I33
sg15
g16
(g17
(I0
tp1232
g19
tp1233
Rp1234
(I1
(I2
tp1235
g26
I00
S';\xb9\xdb\xb7\n\x9e0@7\xc0-@\xe8\x8c&@'
p1236
tp1237
bsg31
g82
ssI173
(dp1238
g13
I33
sg15
g16
(g17
(I0
tp1239
g19
tp1240
Rp1241
(I1
(I2
tp1242
g26
I00
S'\x98knJ\xd4\x0e-@\xf7\x88\x8c\x01P\x18*@'
p1243
tp1244
bsg31
g82
ssI174
(dp1245
g13
I33
sg15
g16
(g17
(I0
tp1246
g19
tp1247
Rp1248
(I1
(I2
tp1249
g26
I00
S'\xb6\xbd\xb8:\xbdL&@\xecVF\xec\xb6\xbd(@'
p1250
tp1251
bsg31
g82
ssI175
(dp1252
g13
I33
sg15
g16
(g17
(I0
tp1253
g19
tp1254
Rp1255
(I1
(I2
tp1256
g26
I00
S'\xb6\xbd\xb8:\xbdL&@\x82)\x15\x94\x19\\$@'
p1257
tp1258
bsg31
g82
ssI176
(dp1259
g13
I33
sg15
g16
(g17
(I0
tp1260
g19
tp1261
Rp1262
(I1
(I2
tp1263
g26
I00
S'\x98knJ\xd4\x0e-@w\xf7\xce~\x80\x01#@'
p1264
tp1265
bsg31
g82
ssI177
(dp1266
g13
I34
sg15
g16
(g17
(I0
tp1267
g19
tp1268
Rp1269
(I1
(I2
tp1270
g26
I00
S'\xb1T\x84[j\xb6)@\xb8\x01n\x01Bg\x04@'
p1271
tp1272
bsg31
g82
ssI178
(dp1273
g13
I34
sg15
g16
(g17
(I0
tp1274
g19
tp1275
Rp1276
(I1
(I2
tp1277
g26
I00
S'\xd3M;6)\x89%@\\\x92t\x83pJ\x11@'
p1278
tp1279
bsg31
g82
ssI179
(dp1280
g13
I34
sg15
g16
(g17
(I0
tp1281
g19
tp1282
Rp1283
(I1
(I2
tp1284
g26
I00
S'\xe4?\x0bM$\x8e\x1d@\x90\\\xd0\xb1|*\r@'
p1285
tp1286
bsg31
g82
ssI180
(dp1287
g13
I34
sg15
g16
(g17
(I0
tp1288
g19
tp1289
Rp1290
(I1
(I2
tp1291
g26
I00
S'\xe4?\x0bM$\x8e\x1d@\xc0M\x17\xa2\x0eH\xf7?'
p1292
tp1293
bsg31
g82
ssI181
(dp1294
g13
I34
sg15
g16
(g17
(I0
tp1295
g19
tp1296
Rp1297
(I1
(I2
tp1298
g26
I00
S'\xd3M;6)\x89%@\xe0z\xcb\xef\x8b\xe6\xe8?'
p1299
tp1300
bsg31
g82
ssI182
(dp1301
g13
I35
sg15
g16
(g17
(I0
tp1302
g19
tp1303
Rp1304
(I1
(I2
tp1305
g26
I00
S'\x86\xa4\x95\xc9\x13\x90"@P\xec\xff&3\xe4\x19\xc0'
p1306
tp1307
bsg31
g82
ssI183
(dp1308
g13
I35
sg15
g16
(g17
(I0
tp1309
g19
tp1310
Rp1311
(I1
(I2
tp1312
g26
I00
S'P;\x99H\xa5\xc5\x1c@\xd0ZB\xa4c\xcd\x12\xc0'
p1313
tp1314
bsg31
g82
ssI184
(dp1315
g13
I35
sg15
g16
(g17
(I0
tp1316
g19
tp1317
Rp1318
(I1
(I2
tp1319
g26
I00
S' \xbf[R\xee\x82\x0e@\xe4\xbe\xce\xce\x95\x82\x15\xc0'
p1320
tp1321
bsg31
g82
ssI185
(dp1322
g13
I35
sg15
g16
(g17
(I0
tp1323
g19
tp1324
Rp1325
(I1
(I2
tp1326
g26
I00
S' \xbf[R\xee\x82\x0e@\xb8\x191\x7f\xd0E\x1e\xc0'
p1327
tp1328
bsg31
g82
ssI186
(dp1329
g13
I35
sg15
g16
(g17
(I0
tp1330
g19
tp1331
Rp1332
(I1
(I2
tp1333
g26
I00
S'P;\x99H\xa5\xc5\x1c@\xe4\xbe\xdeT\x81} \xc0'
p1334
tp1335
bsg31
g82
ssI187
(dp1336
g13
I36
sg15
g16
(g17
(I0
tp1337
g19
tp1338
Rp1339
(I1
(I2
tp1340
g26
I00
S'\x8e\xb3a\x7f\x17C:@\x84j\x8e\xd9\xbb\xb5N@'
p1341
tp1342
bsg31
g82
ssI188
(dp1343
g13
I36
sg15
g16
(g17
(I0
tp1344
g19
tp1345
Rp1346
(I1
(I2
tp1347
g26
I00
S'\x1f0\xbd\xecv,8@\xb4\x1c\xe6\xc9\x95\x98O@'
p1348
tp1349
bsg31
g82
ssI189
(dp1350
g13
I36
sg15
g16
(g17
(I0
tp1351
g19
tp1352
Rp1353
(I1
(I2
tp1354
g26
I00
S'/Y\xe2dk\xcb4@1\x90\x94\x84\xefAO@'
p1355
tp1356
bsg31
g82
ssI190
(dp1357
g13
I36
sg15
g16
(g17
(I0
tp1358
g19
tp1359
Rp1360
(I1
(I2
tp1361
g26
I00
S'/Y\xe2dk\xcb4@\xd7D\x88.\x88)N@'
p1362
tp1363
bsg31
g82
ssI191
(dp1364
g13
I36
sg15
g16
(g17
(I0
tp1365
g19
tp1366
Rp1367
(I1
(I2
tp1368
g26
I00
S'\x1f0\xbd\xecv,8@T\xb86\xe9\xe1\xd2M@'
p1369
tp1370
bsg31
g82
ssI192
(dp1371
g13
I37
sg15
g16
(g17
(I0
tp1372
g19
tp1373
Rp1374
(I1
(I2
tp1375
g26
I00
S'\x02\xe6\xda\x81\xb9v6@l\x02G\xce]\x15J@'
p1376
tp1377
bsg31
g82
ssI193
(dp1378
g13
I37
sg15
g16
(g17
(I0
tp1379
g19
tp1380
Rp1381
(I1
(I2
tp1382
g26
I00
S'\x93b6\xef\x18`4@\x9c\xb4\x9e\xbe7\xf8J@'
p1383
tp1384
bsg31
g82
ssI194
(dp1385
g13
I37
sg15
g16
(g17
(I0
tp1386
g19
tp1387
Rp1388
(I1
(I2
tp1389
g26
I00
S'\xa2\x8b[g\r\xff0@\x19(My\x91\xa1J@'
p1390
tp1391
bsg31
g82
ssI195
(dp1392
g13
I37
sg15
g16
(g17
(I0
tp1393
g19
tp1394
Rp1395
(I1
(I2
tp1396
g26
I00
S'\xa2\x8b[g\r\xff0@\xbe\xdc@#*\x89I@'
p1397
tp1398
bsg31
g82
ssI196
(dp1399
g13
I37
sg15
g16
(g17
(I0
tp1400
g19
tp1401
Rp1402
(I1
(I2
tp1403
g26
I00
S'\x93b6\xef\x18`4@<P\xef\xdd\x832I@'
p1404
tp1405
bsg31
g82
ssI197
(dp1406
g13
I38
sg15
g16
(g17
(I0
tp1407
g19
tp1408
Rp1409
(I1
(I2
tp1410
g26
I00
S'=\x8e\xe38\x8e\xe32@\x8a7\\!\x04\x14E@'
p1411
tp1412
bsg31
g82
ssI198
(dp1413
g13
I38
sg15
g16
(g17
(I0
tp1414
g19
tp1415
Rp1416
(I1
(I2
tp1417
g26
I00
S'\xce\n?\xa6\xed\xcc0@\xba\xe9\xb3\x11\xde\xf6E@'
p1418
tp1419
bsg31
g82
ssI199
(dp1420
g13
I38
sg15
g16
(g17
(I0
tp1421
g19
tp1422
Rp1423
(I1
(I2
tp1424
g26
I00
S'\xbag\xc8<\xc4\xd7*@7]b\xcc7\xa0E@'
p1425
tp1426
bsg31
g82
ssI200
(dp1427
g13
I38
sg15
g16
(g17
(I0
tp1428
g19
tp1429
Rp1430
(I1
(I2
tp1431
g26
I00
S'\xbag\xc8<\xc4\xd7*@\xdc\x11Vv\xd0\x87D@'
p1432
tp1433
bsg31
g82
ssI201
(dp1434
g13
I38
sg15
g16
(g17
(I0
tp1435
g19
tp1436
Rp1437
(I1
(I2
tp1438
g26
I00
S'\xce\n?\xa6\xed\xcc0@Z\x85\x041*1D@'
p1439
tp1440
bsg31
g82
ssI202
(dp1441
g13
I39
sg15
g16
(g17
(I0
tp1442
g19
tp1443
Rp1444
(I1
(I2
tp1445
g26
I00
S'\xdfW\xf7H+\x13/@\xd6\x96\xb3\x8d8\x88@@'
p1446
tp1447
bsg31
g82
ssI203
(dp1448
g13
I39
sg15
g16
(g17
(I0
tp1449
g19
tp1450
Rp1451
(I1
(I2
tp1452
g26
I00
S'\x00Q\xae#\xea\xe5*@\x06I\x0b~\x12kA@'
p1453
tp1454
bsg31
g82
ssI204
(dp1455
g13
I39
sg15
g16
(g17
(I0
tp1456
g19
tp1457
Rp1458
(I1
(I2
tp1459
g26
I00
S' \xa3\xf8\x13\xd3#$@\x83\xbc\xb98l\x14A@'
p1460
tp1461
bsg31
g82
ssI205
(dp1462
g13
I39
sg15
g16
(g17
(I0
tp1463
g19
tp1464
Rp1465
(I1
(I2
tp1466
g26
I00
S' \xa3\xf8\x13\xd3#$@Q\xe2Z\xc5\t\xf8?@'
p1467
tp1468
bsg31
g82
ssI206
(dp1469
g13
I39
sg15
g16
(g17
(I0
tp1470
g19
tp1471
Rp1472
(I1
(I2
tp1473
g26
I00
S'\x00Q\xae#\xea\xe5*@L\xc9\xb7:\xbdJ?@'
p1474
tp1475
bsg31
g82
ssI207
(dp1476
g13
I40
sg15
g16
(g17
(I0
tp1477
g19
tp1478
Rp1479
(I1
(I2
tp1480
g26
I00
S"\t%\xe3\x9d\xe5\xff'@\xec\x11k\xa4\xa6b8@"
p1481
tp1482
bsg31
g82
ssI208
(dp1483
g13
I40
sg15
g16
(g17
(I0
tp1484
g19
tp1485
Rp1486
(I1
(I2
tp1487
g26
I00
S'*\x1e\x9ax\xa4\xd2#@Kv\x1a\x85Z(:@'
p1488
tp1489
bsg31
g82
ssI209
(dp1490
g13
I40
sg15
g16
(g17
(I0
tp1491
g19
tp1492
Rp1493
(I1
(I2
tp1494
g26
I00
S'\x94\xe0\xc8\xd1\x1a!\x1a@F]w\xfa\r{9@'
p1495
tp1496
bsg31
g82
ssI210
(dp1497
g13
I40
sg15
g16
(g17
(I0
tp1498
g19
tp1499
Rp1500
(I1
(I2
tp1501
g26
I00
S'\x94\xe0\xc8\xd1\x1a!\x1a@\x91\xc6^N?J7@'
p1502
tp1503
bsg31
g82
ssI211
(dp1504
g13
I40
sg15
g16
(g17
(I0
tp1505
g19
tp1506
Rp1507
(I1
(I2
tp1508
g26
I00
S'*\x1e\x9ax\xa4\xd2#@\x8c\xad\xbb\xc3\xf2\x9c6@'
p1509
tp1510
bsg31
g82
ssI212
(dp1511
g13
I41
sg15
g16
(g17
(I0
tp1512
g19
tp1513
Rp1514
(I1
(I2
tp1515
g26
I00
S'\x90\xf1\xce\xf2\x9f\xec @\x84r\x04x\xcf\x14.@'
p1516
tp1517
bsg31
g82
ssI213
(dp1518
g13
I41
sg15
g16
(g17
(I0
tp1519
g19
tp1520
Rp1521
(I1
(I2
tp1522
g26
I00
S'd\xd5\x0b\x9b\xbd~\x19@\xa2\x9d\xb1\x9c\x1b\xd00@'
p1523
tp1524
bsg31
g82
ssI214
(dp1525
g13
I41
sg15
g16
(g17
(I0
tp1526
g19
tp1527
Rp1528
(I1
(I2
tp1529
g26
I00
S'H\xf3@\xf7\x1e\xf5\x07@\x9c\x84\x0e\x12\xcf"0@'
p1530
tp1531
bsg31
g82
ssI215
(dp1532
g13
I41
sg15
g16
(g17
(I0
tp1533
g19
tp1534
Rp1535
(I1
(I2
tp1536
g26
I00
S'H\xf3@\xf7\x1e\xf5\x07@\xce\xdb\xeb\xcb\x00\xe4+@'
p1537
tp1538
bsg31
g82
ssI216
(dp1539
g13
I41
sg15
g16
(g17
(I0
tp1540
g19
tp1541
Rp1542
(I1
(I2
tp1543
g26
I00
S'd\xd5\x0b\x9b\xbd~\x19@\xc4\xa9\xa5\xb6g\x89*@'
p1544
tp1545
bsg31
g82
ssI217
(dp1546
g13
I42
sg15
g16
(g17
(I0
tp1547
g19
tp1548
Rp1549
(I1
(I2
tp1550
g26
I00
S'\x0e\x84\xc0\xc1\x92\x8c\x13@\x1a+n\xb3\xdb\x9e\x18@'
p1551
tp1552
bsg31
g82
ssI218
(dp1553
g13
I42
sg15
g16
(g17
(I0
tp1554
g19
tp1555
Rp1556
(I1
(I2
tp1557
g26
I00
S'\xa0\xec\\\xee d\x06@\x9a\xbc+6\xab\xb5\x1f@'
p1558
tp1559
bsg31
g82
ssI219
(dp1560
g13
I42
sg15
g16
(g17
(I0
tp1561
g19
tp1562
Rp1563
(I1
(I2
tp1564
g26
I00
S'\x80+\xe7A\xed\x90\xe2\xbf\x86X\x9f\x0by\x00\x1d@'
p1565
tp1566
bsg31
g82
ssI220
(dp1567
g13
I42
sg15
g16
(g17
(I0
tp1568
g19
tp1569
Rp1570
(I1
(I2
tp1571
g26
I00
S'\x80+\xe7A\xed\x90\xe2\xbf\xb0\xfd<[>=\x14@'
p1572
tp1573
bsg31
g82
ssI221
(dp1574
g13
I42
sg15
g16
(g17
(I0
tp1575
g19
tp1576
Rp1577
(I1
(I2
tp1578
g26
I00
S'\xa0\xec\\\xee d\x06@\x9c\x99\xb00\x0c\x88\x11@'
p1579
tp1580
bsg31
g82
ssI222
(dp1581
g13
I43
sg15
g16
(g17
(I0
tp1582
g19
tp1583
Rp1584
(I1
(I2
tp1585
g26
I00
S'\x80t`\xae\x1d\x98\xf5?\xf8M\x02\x954&\t\xc0'
p1586
tp1587
bsg31
g82
ssI223
(dp1588
g13
I43
sg15
g16
(g17
(I0
tp1589
g19
tp1590
Rp1591
(I1
(I2
tp1592
g26
I00
S'\x00\x85\xcf\xf7\xd6\xa3\xe7\xbf\xf0U\x0e\x1f+\xf1\xf5\xbf'
p1593
tp1594
bsg31
g82
ssI224
(dp1595
g13
I43
sg15
g16
(g17
(I0
tp1596
g19
tp1597
Rp1598
(I1
(I2
tp1599
g26
I00
S'`Le\xfe\xa8x\x10\xc0(\xf3\x9f\xe4\xf9b\x00\xc0'
p1600
tp1601
bsg31
g82
ssI225
(dp1602
g13
I43
sg15
g16
(g17
(I0
tp1603
g19
tp1604
Rp1605
(I1
(I2
tp1606
g26
I00
S'`Le\xfe\xa8x\x10\xc0dT\xb2\xa2\xb7\xf4\x10\xc0'
p1607
tp1608
bsg31
g82
ssI226
(dp1609
g13
I43
sg15
g16
(g17
(I0
tp1610
g19
tp1611
Rp1612
(I1
(I2
tp1613
g26
I00
S'\x00\x85\xcf\xf7\xd6\xa3\xe7\xbf|\xb8>\xcd\xe9\xa9\x13\xc0'
p1614
tp1615
bsg31
g82
ssI227
(dp1616
g13
I44
sg15
g16
(g17
(I0
tp1617
g19
tp1618
Rp1619
(I1
(I2
tp1620
g26
I00
S'\xa7\xd5=\xd2\xcad,@(]M\x9ea\xc5K@'
p1621
tp1622
bsg31
g82
ssI228
(dp1623
g13
I44
sg15
g16
(g17
(I0
tp1624
g19
tp1625
Rp1626
(I1
(I2
tp1627
g26
I00
S'\xc8\xce\xf4\xac\x897(@X\x0f\xa5\x8e;\xa8L@'
p1628
tp1629
bsg31
g82
ssI229
(dp1630
g13
I44
sg15
g16
(g17
(I0
tp1631
g19
tp1632
Rp1633
(I1
(I2
tp1634
g26
I00
S'\xe8 ?\x9dru!@\xd5\x82SI\x95QL@'
p1635
tp1636
bsg31
g82
ssI230
(dp1637
g13
I44
sg15
g16
(g17
(I0
tp1638
g19
tp1639
Rp1640
(I1
(I2
tp1641
g26
I00
S'\xe8 ?\x9dru!@{7G\xf3-9K@'
p1642
tp1643
bsg31
g82
ssI231
(dp1644
g13
I44
sg15
g16
(g17
(I0
tp1645
g19
tp1646
Rp1647
(I1
(I2
tp1648
g26
I00
S'\xc8\xce\xf4\xac\x897(@\xf8\xaa\xf5\xad\x87\xe2J@'
p1649
tp1650
bsg31
g82
ssI232
(dp1651
g13
I45
sg15
g16
(g17
(I0
tp1652
g19
tp1653
Rp1654
(I1
(I2
tp1655
g26
I00
S'|W\\\xa0\x873$@\x07\xa3\x16\x95\r\xf3F@'
p1656
tp1657
bsg31
g82
ssI233
(dp1658
g13
I45
sg15
g16
(g17
(I0
tp1659
g19
tp1660
Rp1661
(I1
(I2
tp1662
g26
I00
S'\x9eP\x13{F\x06 @8Un\x85\xe7\xd5G@'
p1663
tp1664
bsg31
g82
ssI234
(dp1665
g13
I45
sg15
g16
(g17
(I0
tp1666
g19
tp1667
Rp1668
(I1
(I2
tp1669
g26
I00
S'xE\xbb\xd6^\x88\x12@\xb5\xc8\x1c@A\x7fG@'
p1670
tp1671
bsg31
g82
ssI235
(dp1672
g13
I45
sg15
g16
(g17
(I0
tp1673
g19
tp1674
Rp1675
(I1
(I2
tp1676
g26
I00
S'xE\xbb\xd6^\x88\x12@Z}\x10\xea\xd9fF@'
p1677
tp1678
bsg31
g82
ssI236
(dp1679
g13
I45
sg15
g16
(g17
(I0
tp1680
g19
tp1681
Rp1682
(I1
(I2
tp1683
g26
I00
S'\x9eP\x13{F\x06 @\xd8\xf0\xbe\xa43\x10F@'
p1684
tp1685
bsg31
g82
ssI237
(dp1686
g13
I46
sg15
g16
(g17
(I0
tp1687
g19
tp1688
Rp1689
(I1
(I2
tp1690
g26
I00
S'\xb0\x108X\x92q\x1b@\xe2K\x83-\xb5\x81B@'
p1691
tp1692
bsg31
g82
ssI238
(dp1693
g13
I46
sg15
g16
(g17
(I0
tp1694
g19
tp1695
Rp1696
(I1
(I2
tp1697
g26
I00
S'\xf6\x02\xa6\r\x10\x17\x13@\x12\xfe\xda\x1d\x8fdC@'
p1698
tp1699
bsg31
g82
ssI239
(dp1700
g13
I46
sg15
g16
(g17
(I0
tp1701
g19
tp1702
Rp1703
(I1
(I2
tp1704
g26
I00
S'\xc0\x9c\xea\xb8\x87K\xf6?\x90q\x89\xd8\xe8\rC@'
p1705
tp1706
bsg31
g82
ssI240
(dp1707
g13
I46
sg15
g16
(g17
(I0
tp1708
g19
tp1709
Rp1710
(I1
(I2
tp1711
g26
I00
S'\xc0\x9c\xea\xb8\x87K\xf6?6&}\x82\x81\xf5A@'
p1712
tp1713
bsg31
g82
ssI241
(dp1714
g13
I46
sg15
g16
(g17
(I0
tp1715
g19
tp1716
Rp1717
(I1
(I2
tp1718
g26
I00
S'\xf6\x02\xa6\r\x10\x17\x13@\xb2\x99+=\xdb\x9eA@'
p1719
tp1720
bsg31
g82
ssI242
(dp1721
g13
I47
sg15
g16
(g17
(I0
tp1722
g19
tp1723
Rp1724
(I1
(I2
tp1725
g26
I00
S'\xd0\xe4n\xdf*\xf8\x0c@,V\xb53\xd3\xeb;@'
p1726
tp1727
bsg31
g82
ssI243
(dp1728
g13
I47
sg15
g16
(g17
(I0
tp1729
g19
tp1730
Rp1731
(I1
(I2
tp1732
g26
I00
S'\xb0\x92\x95\x94L\x86\xf8?\x8c\xbad\x14\x87\xb1=@'
p1733
tp1734
bsg31
g82
ssI244
(dp1735
g13
I47
sg15
g16
(g17
(I0
tp1736
g19
tp1737
Rp1738
(I1
(I2
tp1739
g26
I00
S'P\xdc\x17\xe9k\x8a\xfd\xbf\x87\xa1\xc1\x89:\x04=@'
p1740
tp1741
bsg31
g82
ssI245
(dp1742
g13
I47
sg15
g16
(g17
(I0
tp1743
g19
tp1744
Rp1745
(I1
(I2
tp1746
g26
I00
S'P\xdc\x17\xe9k\x8a\xfd\xbf\xd1\n\xa9\xddk\xd3:@'
p1747
tp1748
bsg31
g82
ssI246
(dp1749
g13
I47
sg15
g16
(g17
(I0
tp1750
g19
tp1751
Rp1752
(I1
(I2
tp1753
g26
I00
S'\xb0\x92\x95\x94L\x86\xf8?\xcc\xf1\x05S\x1f&:@'
p1754
tp1755
bsg31
g82
ssI247
(dp1756
g13
I48
sg15
g16
(g17
(I0
tp1757
g19
tp1758
Rp1759
(I1
(I2
tp1760
g26
I00
S'\x00/\xc3c\x86b\xb5?h\x92\xedW[\xce2@'
p1761
tp1762
bsg31
g82
ssI248
(dp1763
g13
I48
sg15
g16
(g17
(I0
tp1764
g19
tp1765
Rp1766
(I1
(I2
tp1767
g26
I00
S'\x00\x02\x06b\xf0\t\x00\xc0\xc8\xf6\x9c8\x0f\x944@'
p1768
tp1769
bsg31
g82
ssI249
(dp1770
g13
I48
sg15
g16
(g17
(I0
tp1771
g19
tp1772
Rp1773
(I1
(I2
tp1774
g26
I00
S'\xc0\\nP&\x89\x15\xc0\xc3\xdd\xf9\xad\xc2\xe63@'
p1775
tp1776
bsg31
g82
ssI250
(dp1777
g13
I48
sg15
g16
(g17
(I0
tp1778
g19
tp1779
Rp1780
(I1
(I2
tp1781
g26
I00
S'\xc0\\nP&\x89\x15\xc0\rG\xe1\x01\xf4\xb51@'
p1782
tp1783
bsg31
g82
ssI251
(dp1784
g13
I48
sg15
g16
(g17
(I0
tp1785
g19
tp1786
Rp1787
(I1
(I2
tp1788
g26
I00
S'\x00\x02\x06b\xf0\t\x00\xc0\x08.>w\xa7\x081@'
p1789
tp1790
bsg31
g82
ssI252
(dp1791
g13
I49
sg15
g16
(g17
(I0
tp1792
g19
tp1793
Rp1794
(I1
(I2
tp1795
g26
I00
S'h\xb42y\x02\xa2\x0b\xc0\x1a\x80\xd0\x19}\x0f#@'
p1796
tp1797
bsg31
g82
ssI253
(dp1798
g13
I49
sg15
g16
(g17
(I0
tp1799
g19
tp1800
Rp1801
(I1
(I2
tp1802
g26
I00
S'\xf4g+\x87\x83+\x16\xc0\xdaH/\xdb\xe4\x9a&@'
p1803
tp1804
bsg31
g82
ssI254
(dp1805
g13
I49
sg15
g16
(g17
(I0
tp1806
g19
tp1807
Rp1808
(I1
(I2
tp1809
g26
I00
S'\xdaaK\xd3\xd8\xd7!\xc0\xd0\x16\xe9\xc5K@%@'
p1810
tp1811
bsg31
g82
ssI255
(dp1812
g13
I49
sg15
g16
(g17
(I0
tp1813
g19
tp1814
Rp1815
(I1
(I2
tp1816
g26
I00
S'\xdaaK\xd3\xd8\xd7!\xc0e\xe9\xb7m\xae\xde @'
p1817
tp1818
bsg31
g82
ssI256
(dp1819
g13
I49
sg15
g16
(g17
(I0
tp1820
g19
tp1821
Rp1822
(I1
(I2
tp1823
g26
I00
S'\xf4g+\x87\x83+\x16\xc0\xb4n\xe3\xb0*\x08\x1f@'
p1824
tp1825
bsg31
g82
ssI257
(dp1826
g13
I50
sg15
g16
(g17
(I0
tp1827
g19
tp1828
Rp1829
(I1
(I2
tp1830
g26
I00
S'\xf0\x06\xb0\x89:z\x1a\xc0\x80l\xbbxpH\xd0?'
p1831
tp1832
bsg31
g82
ssI258
(dp1833
g13
I50
sg15
g16
(g17
(I0
tp1834
g19
tp1835
Rp1836
(I1
(I2
tp1837
g26
I00
S'X\n!j^j!\xc0\x98\x90\x92\x14\xad6\x00@'
p1838
tp1839
bsg31
g82
ssI259
(dp1840
g13
I50
sg15
g16
(g17
(I0
tp1841
g19
tp1842
Rp1843
(I1
(I2
tp1844
g26
I00
S'8\xb8\xd6yu,(\xc0\xd0\x90\xf3~\x91\x98\xf5?'
p1845
tp1846
bsg31
g82
ssI260
(dp1847
g13
I50
sg15
g16
(g17
(I0
tp1848
g19
tp1849
Rp1850
(I1
(I2
tp1851
g26
I00
S'8\xb8\xd6yu,(\xc0 \xb5+\x85\xb2\xe8\xea\xbf'
p1852
tp1853
bsg31
g82
ssI261
(dp1854
g13
I50
sg15
g16
(g17
(I0
tp1855
g19
tp1856
Rp1857
(I1
(I2
tp1858
g26
I00
S'X\n!j^j!\xc0\xe0j\xc7\xec!I\xf8\xbf'
p1859
tp1860
bsg31
g82
ssI262
(dp1861
g13
I51
sg15
g16
(g17
(I0
tp1862
g19
tp1863
Rp1864
(I1
(I2
tp1865
g26
I00
S'@\xdc\xf4\xa67\xbd\xe5?-X\xe64\x8a\xecH@'
p1866
tp1867
bsg31
g82
ssI263
(dp1868
g13
I51
sg15
g16
(g17
(I0
tp1869
g19
tp1870
Rp1871
(I1
(I2
tp1872
g26
I00
S'\xd0\xc8\xcdVm\x8b\xf6\xbf]\n>%d\xcfI@'
p1873
tp1874
bsg31
g82
ssI264
(dp1875
g13
I51
sg15
g16
(g17
(I0
tp1876
g19
tp1877
Rp1878
(I1
(I2
tp1879
g26
I00
S"\xf8\xcd\x1eu\t'\x13\xc0\xda}\xec\xdf\xbdxI@"
p1880
tp1881
bsg31
g82
ssI265
(dp1882
g13
I51
sg15
g16
(g17
(I0
tp1883
g19
tp1884
Rp1885
(I1
(I2
tp1886
g26
I00
S"\xf8\xcd\x1eu\t'\x13\xc0\x802\xe0\x89V`H@"
p1887
tp1888
bsg31
g82
ssI266
(dp1889
g13
I51
sg15
g16
(g17
(I0
tp1890
g19
tp1891
Rp1892
(I1
(I2
tp1893
g26
I00
S'\xd0\xc8\xcdVm\x8b\xf6\xbf\xfd\xa5\x8eD\xb0\tH@'
p1894
tp1895
bsg31
g82
ssI267
(dp1896
g13
I52
sg15
g16
(g17
(I0
tp1897
g19
tp1898
Rp1899
(I1
(I2
tp1900
g26
I00
S'\xd8\xd8\x81\xb9v`\x05\xc0dv\x02G\xce]D@'
p1901
tp1902
bsg31
g82
ssI268
(dp1903
g13
I52
sg15
g16
(g17
(I0
tp1904
g19
tp1905
Rp1906
(I1
(I2
tp1907
g26
I00
S'(\xfaR\xa7\xbd\n\x13\xc0\x94(Z7\xa8@E@'
p1908
tp1909
bsg31
g82
ssI269
(dp1910
g13
I52
sg15
g16
(g17
(I0
tp1911
g19
tp1912
Rp1913
(I1
(I2
tp1914
g26
I00
S'\xf4*_\xe3uG \xc0\x11\x9c\x08\xf2\x01\xeaD@'
p1915
tp1916
bsg31
g82
ssI270
(dp1917
g13
I52
sg15
g16
(g17
(I0
tp1918
g19
tp1919
Rp1920
(I1
(I2
tp1921
g26
I00
S'\xf4*_\xe3uG \xc0\xb6P\xfc\x9b\x9a\xd1C@'
p1922
tp1923
bsg31
g82
ssI271
(dp1924
g13
I52
sg15
g16
(g17
(I0
tp1925
g19
tp1926
Rp1927
(I1
(I2
tp1928
g26
I00
S'(\xfaR\xa7\xbd\n\x13\xc04\xc4\xaaV\xf4zC@'
p1929
tp1930
bsg31
g82
ssI272
(dp1931
g13
I53
sg15
g16
(g17
(I0
tp1932
g19
tp1933
Rp1934
(I1
(I2
tp1935
g26
I00
S'@\xae\xb8@\x0f\xe7\x16\xc0.\xab\xb3f\x05\xa4?@'
p1936
tp1937
bsg31
g82
ssI273
(dp1938
g13
I53
sg15
g16
(g17
(I0
tp1939
g19
tp1940
Rp1941
(I1
(I2
tp1942
g26
I00
S'\xf4\xbbJ\x8b\x91A\x1f\xc0\xc7\x87\xb1\xa3\xdc\xb4@@'
p1943
tp1944
bsg31
g82
ssI274
(dp1945
g13
I53
sg15
g16
(g17
(I0
tp1946
g19
tp1947
Rp1948
(I1
(I2
tp1949
g26
I00
S'\xde\x0b[\xd5\xdfb&\xc0D\xfb_^6^@@'
p1950
tp1951
bsg31
g82
ssI275
(dp1952
g13
I53
sg15
g16
(g17
(I0
tp1953
g19
tp1954
Rp1955
(I1
(I2
tp1956
g26
I00
S'\xde\x0b[\xd5\xdfb&\xc0\xd4_\xa7\x10\x9e\x8b>@'
p1957
tp1958
bsg31
g82
ssI276
(dp1959
g13
I53
sg15
g16
(g17
(I0
tp1960
g19
tp1961
Rp1962
(I1
(I2
tp1963
g26
I00
S'\xf4\xbbJ\x8b\x91A\x1f\xc0\xceF\x04\x86Q\xde=@'
p1964
tp1965
bsg31
g82
ssI277
(dp1966
g13
I54
sg15
g16
(g17
(I0
tp1967
g19
tp1968
Rp1969
(I1
(I2
tp1970
g26
I00
S'\x8e)\xc2-5\xdb!\xc0\x95ib?n\x8c6@'
p1971
tp1972
bsg31
g82
ssI278
(dp1973
g13
I54
sg15
g16
(g17
(I0
tp1974
g19
tp1975
Rp1976
(I1
(I2
tp1977
g26
I00
S'l0\x0bSv\x08&\xc0\xf5\xcd\x11 "R8@'
p1978
tp1979
bsg31
g82
ssI279
(dp1980
g13
I54
sg15
g16
(g17
(I0
tp1981
g19
tp1982
Rp1983
(I1
(I2
tp1984
g26
I00
S'P\xde\xc0b\x8d\xca,\xc0\xf0\xb4n\x95\xd5\xa47@'
p1985
tp1986
bsg31
g82
ssI280
(dp1987
g13
I54
sg15
g16
(g17
(I0
tp1988
g19
tp1989
Rp1990
(I1
(I2
tp1991
g26
I00
S'P\xde\xc0b\x8d\xca,\xc0:\x1eV\xe9\x06t5@'
p1992
tp1993
bsg31
g82
ssI281
(dp1994
g13
I54
sg15
g16
(g17
(I0
tp1995
g19
tp1996
Rp1997
(I1
(I2
tp1998
g26
I00
S'l0\x0bSv\x08&\xc05\x05\xb3^\xba\xc64@'
p1999
tp2000
bsg31
g82
ssI282
(dp2001
g13
I55
sg15
g16
(g17
(I0
tp2002
g19
tp2003
Rp2004
(I1
(I2
tp2005
g26
I00
S'\xcc\xee\x91V&\x8f(\xc0\xf8O"0\xae\xe9*@'
p2006
tp2007
bsg31
g82
ssI283
(dp2008
g13
I55
sg15
g16
(g17
(I0
tp2009
g19
tp2010
Rp2011
(I1
(I2
tp2012
g26
I00
S'\xa8\xf5\xda{g\xbc,\xc0\xb8\x18\x81\xf1\x15u.@'
p2013
tp2014
bsg31
g82
ssI284
(dp2015
g13
I55
sg15
g16
(g17
(I0
tp2016
g19
tp2017
Rp2018
(I1
(I2
tp2019
g26
I00
S'\xc6Q\xc8E?\xbf1\xc0\xad\xe6:\xdc|\x1a-@'
p2020
tp2021
bsg31
g82
ssI285
(dp2022
g13
I55
sg15
g16
(g17
(I0
tp2023
g19
tp2024
Rp2025
(I1
(I2
tp2026
g26
I00
S'\xc6Q\xc8E?\xbf1\xc0B\xb9\t\x84\xdf\xb8(@'
p2027
tp2028
bsg31
g82
ssI286
(dp2029
g13
I55
sg15
g16
(g17
(I0
tp2030
g19
tp2031
Rp2032
(I1
(I2
tp2033
g26
I00
S"\xa8\xf5\xda{g\xbc,\xc08\x87\xc3nF^'@"
p2034
tp2035
bsg31
g82
ssI287
(dp2036
g13
I56
sg15
g16
(g17
(I0
tp2037
g19
tp2038
Rp2039
(I1
(I2
tp2040
g26
I00
S'\xe8\xdc#\xadL^.\xc0*dpoC\xa9\x13@'
p2041
tp2042
bsg31
g82
ssI288
(dp2043
g13
I56
sg15
g16
(g17
(I0
tp2044
g19
tp2045
Rp2046
(I1
(I2
tp2047
g26
I00
S'\xe4q6\xe9\xc6E1\xc0\xaa\xf5-\xf2\x12\xc0\x1a@'
p2048
tp2049
bsg31
g82
ssI289
(dp2050
g13
I56
sg15
g16
(g17
(I0
tp2051
g19
tp2052
Rp2053
(I1
(I2
tp2054
g26
I00
S'\xd4H\x11q\xd2\xa64\xc0\x96\x91\xa1\xc7\xe0\n\x18@'
p2055
tp2056
bsg31
g82
ssI290
(dp2057
g13
I56
sg15
g16
(g17
(I0
tp2058
g19
tp2059
Rp2060
(I1
(I2
tp2061
g26
I00
S'\xd4H\x11q\xd2\xa64\xc0\x80m~.L\x8f\x0e@'
p2062
tp2063
bsg31
g82
ssI291
(dp2064
g13
I56
sg15
g16
(g17
(I0
tp2065
g19
tp2066
Rp2067
(I1
(I2
tp2068
g26
I00
S'\xe4q6\xe9\xc6E1\xc0X\xa5e\xd9\xe7$\t@'
p2069
tp2070
bsg31
g82
ssI292
(dp2071
g13
I57
sg15
g16
(g17
(I0
tp2072
g19
tp2073
Rp2074
(I1
(I2
tp2075
g26
I00
S'\xe8P\xac\x16My&\xc0\xde"\xf8\x14\xc8?F@'
p2076
tp2077
bsg31
g82
ssI293
(dp2078
g13
I57
sg15
g16
(g17
(I0
tp2079
g19
tp2080
Rp2081
(I1
(I2
tp2082
g26
I00
S'\xc8W\xf5;\x8e\xa6*\xc0\x0e\xd5O\x05\xa2"G@'
p2083
tp2084
bsg31
g82
ssI294
(dp2085
g13
I57
sg15
g16
(g17
(I0
tp2086
g19
tp2087
Rp2088
(I1
(I2
tp2089
g26
I00
S'\xd4\x82\xd5\xa5R\xb40\xc0\x8bH\xfe\xbf\xfb\xcbF@'
p2090
tp2091
bsg31
g82
ssI295
(dp2092
g13
I57
sg15
g16
(g17
(I0
tp2093
g19
tp2094
Rp2095
(I1
(I2
tp2096
g26
I00
S'\xd4\x82\xd5\xa5R\xb40\xc01\xfd\xf1i\x94\xb3E@'
p2097
tp2098
bsg31
g82
ssI296
(dp2099
g13
I57
sg15
g16
(g17
(I0
tp2100
g19
tp2101
Rp2102
(I1
(I2
tp2103
g26
I00
S'\xc8W\xf5;\x8e\xa6*\xc0\xaep\xa0$\xee\\E@'
p2104
tp2105
bsg31
g82
ssI297
(dp2106
g13
I58
sg15
g16
(g17
(I0
tp2107
g19
tp2108
Rp2109
(I1
(I2
tp2110
g26
I00
S'\x80\x15|?>--\xc0\xb0yu\xafy\x9cA@'
p2111
tp2112
bsg31
g82
ssI298
(dp2113
g13
I58
sg15
g16
(g17
(I0
tp2114
g19
tp2115
Rp2116
(I1
(I2
tp2117
g26
I00
S'0\x8eb\xb2?\xad0\xc0\xe0+\xcd\x9fS\x7fB@'
p2118
tp2119
bsg31
g82
ssI299
(dp2120
g13
I58
sg15
g16
(g17
(I0
tp2121
g19
tp2122
Rp2123
(I1
(I2
tp2124
g26
I00
S' e=:K\x0e4\xc0^\x9f{Z\xad(B@'
p2125
tp2126
bsg31
g82
ssI300
(dp2127
g13
I58
sg15
g16
(g17
(I0
tp2128
g19
tp2129
Rp2130
(I1
(I2
tp2131
g26
I00
S' e=:K\x0e4\xc0\x03To\x04F\x10A@'
p2132
tp2133
bsg31
g82
ssI301
(dp2134
g13
I58
sg15
g16
(g17
(I0
tp2135
g19
tp2136
Rp2137
(I1
(I2
tp2138
g26
I00
S'0\x8eb\xb2?\xad0\xc0\x81\xc7\x1d\xbf\x9f\xb9@@'
p2139
tp2140
bsg31
g82
ssI302
(dp2141
g13
I59
sg15
g16
(g17
(I0
tp2142
g19
tp2143
Rp2144
(I1
(I2
tp2145
g26
I00
S'\x0e\xed%\xb4\x97\xf01\xc0\xbc\xc2M\xdbaP:@'
p2146
tp2147
bsg31
g82
ssI303
(dp2148
g13
I59
sg15
g16
(g17
(I0
tp2149
g19
tp2150
Rp2151
(I1
(I2
tp2152
g26
I00
S"~p\xcaF8\x074\xc0\x1c'\xfd\xbb\x15\x16<@"
p2153
tp2154
bsg31
g82
ssI304
(dp2155
g13
I59
sg15
g16
(g17
(I0
tp2156
g19
tp2157
Rp2158
(I1
(I2
tp2159
g26
I00
S'nG\xa5\xceCh7\xc0\x16\x0eZ1\xc9h;@'
p2160
tp2161
bsg31
g82
ssI305
(dp2162
g13
I59
sg15
g16
(g17
(I0
tp2163
g19
tp2164
Rp2165
(I1
(I2
tp2166
g26
I00
S'nG\xa5\xceCh7\xc0`wA\x85\xfa79@'
p2167
tp2168
bsg31
g82
ssI306
(dp2169
g13
I59
sg15
g16
(g17
(I0
tp2170
g19
tp2171
Rp2172
(I1
(I2
tp2173
g26
I00
S'~p\xcaF8\x074\xc0\\^\x9e\xfa\xad\x8a8@'
p2174
tp2175
bsg31
g82
ssI307
(dp2176
g13
I0
sg15
g16
(g17
(I0
tp2177
g19
tp2178
Rp2179
(I1
(I2
tp2180
g26
I00
S'\x8b\x16M9)\xecM@\xa8f\xa6\xd7c\x81\x05@'
p2181
tp2182
bsg31
S'turbine'
p2183
ssI308
(dp2184
g13
I1
sg15
g16
(g17
(I0
tp2185
g19
tp2186
Rp2187
(I1
(I2
tp2188
g26
I00
S"\xd5\t\x88\xceW'L@\xd0\xbeJ\xa5\xf9/\x1c\xc0"
p2189
tp2190
bsg31
g2183
ssI309
(dp2191
g13
I2
sg15
g16
(g17
(I0
tp2192
g19
tp2193
Rp2194
(I1
(I2
tp2195
g26
I00
S'.\x11n\xa9\xd9PK@\xabL\xaf\xc7\x02\xab-@'
p2196
tp2197
bsg31
g2183
ssI310
(dp2198
g13
I3
sg15
g16
(g17
(I0
tp2199
g19
tp2200
Rp2201
(I1
(I2
tp2202
g26
I00
S'|\xa3_x\xcc\x90I@\x92]\x8a\x9e\xec+\x19@'
p2203
tp2204
bsg31
g2183
ssI311
(dp2205
g13
I4
sg15
g16
(g17
(I0
tp2206
g19
tp2207
Rp2208
(I1
(I2
tp2209
g26
I00
S'\n\xdcR\xb3a\xafG@\xc0]\xb68:U\t\xc0'
p2210
tp2211
bsg31
g2183
ssI312
(dp2212
g13
I5
sg15
g16
(g17
(I0
tp2213
g19
tp2214
Rp2215
(I1
(I2
tp2216
g26
I00
S"\x15)\x8c\xdc\xed\x0bF@\xe4\xdf\xd9\x1f\xe9\xdf'\xc0"
p2217
tp2218
bsg31
g2183
ssI313
(dp2219
g13
I6
sg15
g16
(g17
(I0
tp2220
g19
tp2221
Rp2222
(I1
(I2
tp2223
g26
I00
S'\xebS\x84[j\xc6C@\x1ap\xe4\xdcUQ4\xc0'
p2224
tp2225
bsg31
g2183
ssI314
(dp2226
g13
I7
sg15
g16
(g17
(I0
tp2227
g19
tp2228
Rp2229
(I1
(I2
tp2230
g26
I00
S'\xec\x95d\xbc\xb3,I@\xdd\xcfQ\x161\xda;@'
p2231
tp2232
bsg31
g2183
ssI315
(dp2233
g13
I8
sg15
g16
(g17
(I0
tp2234
g19
tp2235
Rp2236
(I1
(I2
tp2237
g26
I00
S'\xab\x0c\xc5j\xd1TG@d\xea!\xf3\xad^2@'
p2238
tp2239
bsg31
g2183
ssI316
(dp2240
g13
I9
sg15
g16
(g17
(I0
tp2241
g19
tp2242
Rp2243
(I1
(I2
tp2244
g26
I00
S'\xf1`I\xc6;\x8bE@\x9f\xae\xff\x9b\xcc\x90#@'
p2245
tp2246
bsg31
g2183
ssI317
(dp2247
g13
I10
sg15
g16
(g17
(I0
tp2248
g19
tp2249
Rp2250
(I1
(I2
tp2251
g26
I00
S't\xde\xf4\xa67\x8dC@@\x00\x9d\xd1\xf7\xb0\xd4?'
p2252
tp2253
bsg31
g2183
ssI318
(dp2254
g13
I11
sg15
g16
(g17
(I0
tp2255
g19
tp2256
Rp2257
(I1
(I2
tp2258
g26
I00
S'IN\n#w\xdbA@\x98-\x03\xe8\x01X \xc0'
p2259
tp2260
bsg31
g2183
ssI319
(dp2261
g13
I12
sg15
g16
(g17
(I0
tp2262
g19
tp2263
Rp2264
(I1
(I2
tp2265
g26
I00
S'I\x14F\xee\xf6\xcd?@HE(\xc3\xb1\x0e1\xc0'
p2266
tp2267
bsg31
g2183
ssI320
(dp2268
g13
I13
sg15
g16
(g17
(I0
tp2269
g19
tp2270
Rp2271
(I1
(I2
tp2272
g26
I00
S'\x90\x82\xef\xc7\xa7\xddF@\x02\x83\xc9\x81\x12\x81D@'
p2273
tp2274
bsg31
g2183
ssI321
(dp2275
g13
I14
sg15
g16
(g17
(I0
tp2276
g19
tp2277
Rp2278
(I1
(I2
tp2279
g26
I00
S'\x1e\xbb\xe2\x02=\xfcD@\xa15\x04\xedh\xc1?@'
p2280
tp2281
bsg31
g2183
ssI322
(dp2282
g13
I15
sg15
g16
(g17
(I0
tp2283
g19
tp2284
Rp2285
(I1
(I2
tp2286
g26
I00
S'\x9d\x99\xd7\xa9t\xf9B@\xc92Y\xeb\x9b\xf35@'
p2287
tp2288
bsg31
g2183
ssI323
(dp2289
g13
I16
sg15
g16
(g17
(I0
tp2290
g19
tp2291
Rp2292
(I1
(I2
tp2293
g26
I00
S'\xe7\x8c\x12?\xa34A@h?n\x8c\xa8\xba*@'
p2294
tp2295
bsg31
g2183
ssI324
(dp2296
g13
I17
sg15
g16
(g17
(I0
tp2297
g19
tp2298
Rp2299
(I1
(I2
tp2300
g26
I00
S'N\x07\xe6\xda\x81\xb9>@\x0e>\xa1\xbe`r\x10@'
p2301
tp2302
bsg31
g2183
ssI325
(dp2303
g13
I18
sg15
g16
(g17
(I0
tp2304
g19
tp2305
Rp2306
(I1
(I2
tp2307
g26
I00
S'Ej6\xec\xefB;@@\xff22\xb8\xb7\x11\xc0'
p2308
tp2309
bsg31
g2183
ssI326
(dp2310
g13
I19
sg15
g16
(g17
(I0
tp2311
g19
tp2312
Rp2313
(I1
(I2
tp2314
g26
I00
S'\x12\xdb\x1cb\x1a\x807@\x04 7FT]+\xc0'
p2315
tp2316
bsg31
g2183
ssI327
(dp2317
g13
I20
sg15
g16
(g17
(I0
tp2318
g19
tp2319
Rp2320
(I1
(I2
tp2321
g26
I00
S'\xb8h\xcaIa\x04D@\x80X#5\x15SJ@'
p2322
tp2323
bsg31
g2183
ssI328
(dp2324
g13
I21
sg15
g16
(g17
(I0
tp2325
g19
tp2326
Rp2327
(I1
(I2
tp2328
g26
I00
S'\xc6T\xba\xac\xb1eB@\x7f\xee\x83\xf5\x1b`F@'
p2329
tp2330
bsg31
g2183
ssI329
(dp2331
g13
I22
sg15
g16
(g17
(I0
tp2332
g19
tp2333
Rp2334
(I1
(I2
tp2335
g26
I00
S'Y,d!\x0b\x89@@\xc6\xba\xb0\tj\x9fA@'
p2336
tp2337
bsg31
g2183
ssI330
(dp2338
g13
I23
sg15
g16
(g17
(I0
tp2339
g19
tp2340
Rp2341
(I1
(I2
tp2342
g26
I00
S'\xc7\x8bAE\xb8E=@\xb8\x1a\x82v\xb4\xe09@'
p2343
tp2344
bsg31
g2183
ssI331
(dp2345
g13
I24
sg15
g16
(g17
(I0
tp2346
g19
tp2347
Rp2348
(I1
(I2
tp2349
g26
I00
S'd\xb0$\xe3\x9d\xc59@\xaf\xf6\xab-g\x1b1@'
p2350
tp2351
bsg31
g2183
ssI332
(dp2352
g13
I25
sg15
g16
(g17
(I0
tp2353
g19
tp2354
Rp2355
(I1
(I2
tp2356
g26
I00
S'\xa0X-\x9ar26@\xfe\x99t\\\xacj\x1f@'
p2357
tp2358
bsg31
g2183
ssI333
(dp2359
g13
I26
sg15
g16
(g17
(I0
tp2360
g19
tp2361
Rp2362
(I1
(I2
tp2363
g26
I00
S'\x93\xd7\xa9tY#2@0`09P"\xf0\xbf'
p2364
tp2365
bsg31
g2183
ssI334
(dp2366
g13
I27
sg15
g16
(g17
(I0
tp2367
g19
tp2368
Rp2369
(I1
(I2
tp2370
g26
I00
S'P|?>m3-@Rm`\x0em\xd5#\xc0'
p2371
tp2372
bsg31
g2183
ssI335
(dp2373
g13
I28
sg15
g16
(g17
(I0
tp2374
g19
tp2375
Rp2376
(I1
(I2
tp2377
g26
I00
S'\x8eY\xfe\x93]\xb1?@,\xee\x1f\xc2\xac\xa7L@'
p2378
tp2379
bsg31
g2183
ssI336
(dp2380
g13
I29
sg15
g16
(g17
(I0
tp2381
g19
tp2382
Rp2383
(I1
(I2
tp2384
g26
I00
S'\xb2\x92\x8cw\x96\x1f=@]y\x11|\n\xe4G@'
p2385
tp2386
bsg31
g2183
ssI337
(dp2387
g13
I30
sg15
g16
(g17
(I0
tp2388
g19
tp2389
Rp2390
(I1
(I2
tp2391
g26
I00
S'\xfbk\xa2\x8e~\x818@[R\x05\xcb\x9cFC@'
p2392
tp2393
bsg31
g2183
ssI338
(dp2394
g13
I31
sg15
g16
(g17
(I0
tp2395
g19
tp2396
Rp2397
(I1
(I2
tp2398
g26
I00
S'\xdd\xd5=\xd2\xca\xe44@G\xe5/#\x83{=@'
p2399
tp2400
bsg31
g2183
ssI339
(dp2401
g13
I32
sg15
g16
(g17
(I0
tp2402
g19
tp2403
Rp2404
(I1
(I2
tp2405
g26
I00
S'{\xfa p\xb0d1@?\xc1Y\xda5\xb64@'
p2406
tp2407
bsg31
g2183
ssI340
(dp2408
g13
I33
sg15
g16
(g17
(I0
tp2409
g19
tp2410
Rp2411
(I1
(I2
tp2412
g26
I00
S'}Z4\xe5\xa40+@7\xc0-@\xe8\x8c&@'
p2413
tp2414
bsg31
g2183
ssI341
(dp2415
g13
I34
sg15
g16
(g17
(I0
tp2416
g19
tp2417
Rp2418
(I1
(I2
tp2419
g26
I00
S'\xb8<\x01\xd1\xf9\xaa#@\xb8\x01n\x01Bg\x04@'
p2420
tp2421
bsg31
g2183
ssI342
(dp2422
g13
I35
sg15
g16
(g17
(I0
tp2423
g19
tp2424
Rp2425
(I1
(I2
tp2426
g26
I00
S'\x1c\x19%~F\t\x19@P\xec\xff&3\xe4\x19\xc0'
p2427
tp2428
bsg31
g2183
ssI343
(dp2429
g13
I36
sg15
g16
(g17
(I0
tp2430
g19
tp2431
Rp2432
(I1
(I2
tp2433
g26
I00
S"\x92' :_=7@\x84j\x8e\xd9\xbb\xb5N@"
p2434
tp2435
bsg31
g2183
ssI344
(dp2436
g13
I37
sg15
g16
(g17
(I0
tp2437
g19
tp2438
Rp2439
(I1
(I2
tp2440
g26
I00
S'\x05Z\x99<\x01q3@l\x02G\xce]\x15J@'
p2441
tp2442
bsg31
g2183
ssI345
(dp2443
g13
I38
sg15
g16
(g17
(I0
tp2444
g19
tp2445
Rp2446
(I1
(I2
tp2447
g26
I00
S'\x81\x04D\xe7\xab\xbb/@\x8a7\\!\x04\x14E@'
p2448
tp2449
bsg31
g2183
ssI346
(dp2450
g13
I39
sg15
g16
(g17
(I0
tp2451
g19
tp2452
Rp2453
(I1
(I2
tp2454
g26
I00
S'\xe6?t\xbe\xba\x07)@\xd6\x96\xb3\x8d8\x88@@'
p2455
tp2456
bsg31
g2183
ssI347
(dp2457
g13
I40
sg15
g16
(g17
(I0
tp2458
g19
tp2459
Rp2460
(I1
(I2
tp2461
g26
I00
S'\x0f\r`\x13u\xf4!@\xec\x11k\xa4\xa6b8@'
p2462
tp2463
bsg31
g2183
ssI348
(dp2464
g13
I41
sg15
g16
(g17
(I0
tp2465
g19
tp2466
Rp2467
(I1
(I2
tp2468
g26
I00
S'0\xb3\x97\xd0^\xc2\x15@\x84r\x04x\xcf\x14.@'
p2469
tp2470
bsg31
g2183
ssI349
(dp2471
g13
I42
sg15
g16
(g17
(I0
tp2472
g19
tp2473
Rp2474
(I1
(I2
tp2475
g26
I00
S'\x80P\xe9\xb2\xc6\xd6\xfd?\x1a+n\xb3\xdb\x9e\x18@'
p2476
tp2477
bsg31
g2183
ssI350
(dp2478
g13
I43
sg15
g16
(g17
(I0
tp2479
g19
tp2480
Rp2481
(I1
(I2
tp2482
g26
I00
S'PK\xb8\xa5f\xc3\xfa\xbf\xf8M\x02\x954&\t\xc0'
p2483
tp2484
bsg31
g2183
ssI351
(dp2485
g13
I44
sg15
g16
(g17
(I0
tp2486
g19
tp2487
Rp2488
(I1
(I2
tp2489
g26
I00
S'\xae\xbd\xbaGZY&@(]M\x9ea\xc5K@'
p2490
tp2491
bsg31
g2183
ssI352
(dp2492
g13
I45
sg15
g16
(g17
(I0
tp2493
g19
tp2494
Rp2495
(I1
(I2
tp2496
g26
I00
S'\x04\x7f\xb2+.P\x1c@\x07\xa3\x16\x95\r\xf3F@'
p2497
tp2498
bsg31
g2183
ssI353
(dp2499
g13
I46
sg15
g16
(g17
(I0
tp2500
g19
tp2501
Rp2502
(I1
(I2
tp2503
g26
I00
S'\x80\xc1c\x86b\xb5\x0e@\xe2K\x83-\xb5\x81B@'
p2504
tp2505
bsg31
g2183
ssI354
(dp2506
g13
I47
sg15
g16
(g17
(I0
tp2507
g19
tp2508
Rp2509
(I1
(I2
tp2510
g26
I00
S'\xc0\x13\x8a\xd5\xa2)\xe3?,V\xb53\xd3\xeb;@'
p2511
tp2512
bsg31
g2183
ssI355
(dp2513
g13
I48
sg15
g16
(g17
(I0
tp2514
g19
tp2515
Rp2516
(I1
(I2
tp2517
g26
I00
S'pF\xee\xf6\xad\x82\x07\xc0h\x92\xedW[\xce2@'
p2518
tp2519
bsg31
g2183
ssI356
(dp2520
g13
I49
sg15
g16
(g17
(I0
tp2521
g19
tp2522
Rp2523
(I1
(I2
tp2524
g26
I00
S'(\x8a\x9fQ\xe2\xe7\x19\xc0\x1a\x80\xd0\x19}\x0f#@'
p2525
tp2526
bsg31
g2183
ssI357
(dp2527
g13
I50
sg15
g16
(g17
(I0
tp2528
g19
tp2529
Rp2530
(I1
(I2
tp2531
g26
I00
S'p\x1b[\xcf\x8dH#\xc0\x80l\xbbxpH\xd0?'
p2532
tp2533
bsg31
g2183
ssI358
(dp2534
g13
I51
sg15
g16
(g17
(I0
tp2535
g19
tp2536
Rp2537
(I1
(I2
tp2538
g26
I00
S'\xd0(O@t\xbe\x02\xc0-X\xe64\x8a\xecH@'
p2539
tp2540
bsg31
g2183
ssI359
(dp2541
g13
I52
sg15
g16
(g17
(I0
tp2542
g19
tp2543
Rp2544
(I1
(I2
tp2545
g26
I00
S'\\\x1c\xc7q\x1c\xc7\x16\xc0dv\x02G\xce]D@'
p2546
tp2547
bsg31
g2183
ssI360
(dp2548
g13
I53
sg15
g16
(g17
(I0
tp2549
g19
tp2550
Rp2551
(I1
(I2
tp2552
g26
I00
S'\x18o\xdf*\xf8~!\xc0.\xab\xb3f\x05\xa4?@'
p2553
tp2554
bsg31
g2183
ssI361
(dp2555
g13
I54
sg15
g16
(g17
(I0
tp2556
g19
tp2557
Rp2558
(I1
(I2
tp2559
g26
I00
S"\x86AE\xb8\xa5\xe6'\xc0\x95ib?n\x8c6@"
p2560
tp2561
bsg31
g2183
ssI362
(dp2562
g13
I55
sg15
g16
(g17
(I0
tp2563
g19
tp2564
Rp2565
(I1
(I2
tp2566
g26
I00
S'\xc4\x06\x15\xe1\x96\x9a.\xc0\xf8O"0\xae\xe9*@'
p2567
tp2568
bsg31
g2183
ssI363
(dp2569
g13
I56
sg15
g16
(g17
(I0
tp2570
g19
tp2571
Rp2572
(I1
(I2
tp2573
g26
I00
S'pz\xd3\x9b\xde42\xc0*dpoC\xa9\x13@'
p2574
tp2575
bsg31
g2183
ssI364
(dp2576
g13
I57
sg15
g16
(g17
(I0
tp2577
g19
tp2578
Rp2579
(I1
(I2
tp2580
g26
I00
S'\xe0h/\xa1\xbd\x84,\xc0\xde"\xf8\x14\xc8?F@'
p2581
tp2582
bsg31
g2183
ssI365
(dp2583
g13
I58
sg15
g16
(g17
(I0
tp2584
g19
tp2585
Rp2586
(I1
(I2
tp2587
g26
I00
S'\xbc\x96\xffdW\x9c1\xc0\xb0yu\xafy\x9cA@'
p2588
tp2589
bsg31
g2183
ssI366
(dp2590
g13
I59
sg15
g16
(g17
(I0
tp2591
g19
tp2592
Rp2593
(I1
(I2
tp2594
g26
I00
S'\nyg\xf9O\xf64\xc0\xbc\xc2M\xdbaP:@'
p2595
tp2596
bsg31
g2183
sssS'graph'
p2597
(dp2598
sS'nodes'
p2599
g0
(cnetworkx.classes.reportviews
NodeView
p2600
g2
Ntp2601
Rp2602
(dp2603
S'_nodes'
p2604
g11
sbsS'_adj'
p2605
(dp2606
I0
(dp2607
I7
(dp2608
sI10
(dp2609
sI11
(dp2610
sI12
(dp2611
sI13
(dp2612
sI16
(dp2613
sI27
(dp2614
ssI1
(dp2615
I40
(dp2616
sI41
(dp2617
sI37
(dp2618
ssI2
(dp2619
I225
(dp2620
sI226
(dp2621
sI144
(dp2622
sI145
(dp2623
sI146
(dp2624
sI184
(dp2625
sI185
(dp2626
sI186
(dp2627
sI222
(dp2628
ssI3
(dp2629
I288
(dp2630
sI289
(dp2631
sI290
(dp2632
sI284
(dp2633
sI285
(dp2634
sI286
(dp2635
ssI4
(dp2636
I293
(dp2637
sI294
(dp2638
sI295
(dp2639
ssI5
(dp2640
I188
(dp2641
sI187
(dp2642
sI148
(dp2643
sI149
(dp2644
sI189
(dp2645
ssI6
(dp2646
I107
(dp2647
sI108
(dp2648
sI109
(dp2649
sI147
(dp2650
sI148
(dp2651
sI151
(dp2652
ssI7
(dp2653
I0
g2608
sI8
(dp2654
sI11
(dp2655
sI12
(dp2656
sI13
(dp2657
sI14
(dp2658
sI21
(dp2659
ssI8
(dp2660
I7
g2654
sI9
(dp2661
sI17
(dp2662
sI20
(dp2663
sI21
(dp2664
sI22
(dp2665
sI23
(dp2666
sI26
(dp2667
ssI9
(dp2668
I8
g2661
sI10
(dp2669
sI13
(dp2670
sI14
(dp2671
sI61
(dp2672
sI17
(dp2673
sI58
(dp2674
sI20
(dp2675
sI21
(dp2676
sI22
(dp2677
sI23
(dp2678
sI57
(dp2679
sI26
(dp2680
sI27
(dp2681
sI28
(dp2682
sI29
(dp2683
ssI10
(dp2684
I0
g2609
sI9
g2669
sI11
(dp2685
sI12
(dp2686
sI13
(dp2687
sI14
(dp2688
sI61
(dp2689
sI58
(dp2690
sI21
(dp2691
sI22
(dp2692
sI57
(dp2693
sI25
(dp2694
sI26
(dp2695
sI27
(dp2696
sI28
(dp2697
sI29
(dp2698
sI31
(dp2699
ssI11
(dp2700
I0
g2610
sI7
g2655
sI10
g2685
sI12
(dp2701
sI13
(dp2702
sI14
(dp2703
sI57
(dp2704
sI27
(dp2705
sI28
(dp2706
sI31
(dp2707
ssI12
(dp2708
I0
g2611
sI7
g2656
sI10
g2686
sI11
g2701
sI13
(dp2709
sI16
(dp2710
sI26
(dp2711
ssI13
(dp2712
I0
g2612
sI7
g2657
sI9
g2670
sI10
g2687
sI11
g2702
sI12
g2709
sI14
(dp2713
sI22
(dp2714
sI25
(dp2715
sI26
(dp2716
sI27
(dp2717
sI28
(dp2718
sI62
(dp2719
sI31
(dp2720
ssI14
(dp2721
I32
(dp2722
sI33
(dp2723
sI34
(dp2724
sI66
(dp2725
sI7
g2658
sI9
g2671
sI10
g2688
sI11
g2703
sI13
g2713
sI63
(dp2726
sI15
(dp2727
sI22
(dp2728
sI25
(dp2729
sI26
(dp2730
sI27
(dp2731
sI28
(dp2732
sI62
(dp2733
sI31
(dp2734
ssI15
(dp2735
I32
(dp2736
sI33
(dp2737
sI34
(dp2738
sI36
(dp2739
sI63
(dp2740
sI66
(dp2741
sI14
g2727
sI16
(dp2742
sI62
(dp2743
sI27
(dp2744
sI30
(dp2745
sI31
(dp2746
ssI16
(dp2747
I0
g2613
sI32
(dp2748
sI36
(dp2749
sI33
(dp2750
sI12
g2710
sI15
g2742
sI62
(dp2751
ssI17
(dp2752
I8
g2662
sI9
g2673
sI46
(dp2753
sI18
(dp2754
sI21
(dp2755
sI22
(dp2756
sI23
(dp2757
ssI18
(dp2758
I51
(dp2759
sI42
(dp2760
sI45
(dp2761
sI46
(dp2762
sI47
(dp2763
sI48
(dp2764
sI17
g2754
sI19
(dp2765
sI87
(dp2766
ssI19
(dp2767
I42
(dp2768
sI87
(dp2769
sI45
(dp2770
sI46
(dp2771
sI47
(dp2772
sI88
(dp2773
sI18
g2765
sI51
(dp2774
sI20
(dp2775
sI53
(dp2776
sI54
(dp2777
sI23
(dp2778
sI24
(dp2779
sI52
(dp2780
sI91
(dp2781
ssI20
(dp2782
I51
(dp2783
sI54
(dp2784
sI8
g2663
sI9
g2675
sI87
(dp2785
sI46
(dp2786
sI47
(dp2787
sI56
(dp2788
sI50
(dp2789
sI19
g2775
sI52
(dp2790
sI21
(dp2791
sI22
(dp2792
sI23
(dp2793
sI24
(dp2794
sI88
(dp2795
sI91
(dp2796
sI53
(dp2797
ssI21
(dp2798
I56
(dp2799
sI7
g2659
sI8
g2664
sI9
g2676
sI10
g2691
sI87
(dp2800
sI17
g2755
sI20
g2791
sI53
(dp2801
sI22
(dp2802
sI23
(dp2803
sI24
(dp2804
sI52
(dp2805
ssI22
(dp2806
I8
g2665
sI9
g2677
sI10
g2692
sI13
g2714
sI14
g2728
sI47
(dp2807
sI17
g2756
sI51
(dp2808
sI20
g2792
sI21
g2802
sI23
(dp2809
sI26
(dp2810
sI27
(dp2811
sI28
(dp2812
sI29
(dp2813
ssI23
(dp2814
I51
(dp2815
sI8
g2666
sI9
g2678
sI47
(dp2816
sI17
g2757
sI50
(dp2817
sI19
g2778
sI20
g2793
sI21
g2803
sI22
g2809
sI56
(dp2818
sI24
(dp2819
sI52
(dp2820
sI53
(dp2821
ssI24
(dp2822
I96
(dp2823
sI51
(dp2824
sI92
(dp2825
sI57
(dp2826
sI93
(dp2827
sI47
(dp2828
sI50
(dp2829
sI19
g2779
sI20
g2794
sI21
g2804
sI23
g2819
sI56
(dp2830
sI25
(dp2831
sI58
(dp2832
sI59
(dp2833
sI28
(dp2834
sI29
(dp2835
sI52
(dp2836
ssI25
(dp2837
I96
(dp2838
sI58
(dp2839
sI59
(dp2840
sI93
(dp2841
sI92
(dp2842
sI10
g2694
sI13
g2715
sI14
g2729
sI61
(dp2843
sI56
(dp2844
sI50
(dp2845
sI51
(dp2846
sI52
(dp2847
sI55
(dp2848
sI24
g2831
sI57
(dp2849
sI26
(dp2850
sI27
(dp2851
sI28
(dp2852
sI29
(dp2853
ssI26
(dp2854
I59
(dp2855
sI8
g2667
sI9
g2680
sI10
g2695
sI12
g2711
sI13
g2716
sI14
g2730
sI61
(dp2856
sI92
(dp2857
sI22
g2810
sI57
(dp2858
sI25
g2850
sI58
(dp2859
sI27
(dp2860
sI28
(dp2861
sI29
(dp2862
ssI27
(dp2863
I0
g2614
sI32
(dp2864
sI34
(dp2865
sI33
(dp2866
sI9
g2681
sI10
g2696
sI11
g2705
sI13
g2717
sI14
g2731
sI15
g2744
sI22
g2811
sI56
(dp2867
sI25
g2851
sI26
g2860
sI28
(dp2868
sI31
(dp2869
ssI28
(dp2870
I97
(dp2871
sI9
g2682
sI10
g2697
sI11
g2706
sI13
g2718
sI14
g2732
sI61
(dp2872
sI56
(dp2873
sI58
(dp2874
sI52
(dp2875
sI22
g2812
sI57
(dp2876
sI24
g2834
sI25
g2852
sI26
g2861
sI27
g2868
sI29
(dp2877
sI55
(dp2878
ssI29
(dp2879
I64
(dp2880
sI97
(dp2881
sI34
(dp2882
sI101
(dp2883
sI9
g2683
sI10
g2698
sI62
(dp2884
sI98
(dp2885
sI56
(dp2886
sI52
(dp2887
sI57
(dp2888
sI22
g2813
sI55
(dp2889
sI24
g2835
sI25
g2853
sI26
g2862
sI28
g2877
sI61
(dp2890
sI30
(dp2891
sI63
(dp2892
ssI30
(dp2893
I32
(dp2894
sI33
(dp2895
sI34
(dp2896
sI66
(dp2897
sI101
(dp2898
sI97
(dp2899
sI64
(dp2900
sI61
(dp2901
sI98
(dp2902
sI15
g2745
sI56
(dp2903
sI57
(dp2904
sI63
(dp2905
sI60
(dp2906
sI29
g2891
sI62
(dp2907
sI31
(dp2908
ssI31
(dp2909
I32
(dp2910
sI33
(dp2911
sI34
(dp2912
sI66
(dp2913
sI97
(dp2914
sI10
g2699
sI11
g2707
sI13
g2720
sI14
g2734
sI15
g2746
sI62
(dp2915
sI27
g2869
sI30
g2908
sI63
(dp2916
ssI32
(dp2917
I33
(dp2918
sI36
(dp2919
sI37
(dp2920
sI38
(dp2921
sI14
g2722
sI15
g2736
sI16
g2748
sI27
g2864
sI61
(dp2922
sI30
g2894
sI31
g2910
ssI33
(dp2923
I32
g2918
sI34
(dp2924
sI102
(dp2925
sI63
(dp2926
sI66
(dp2927
sI14
g2723
sI15
g2737
sI16
g2750
sI62
(dp2928
sI57
(dp2929
sI27
g2866
sI60
(dp2930
sI61
(dp2931
sI30
g2895
sI31
g2911
ssI34
(dp2932
I33
g2924
sI66
(dp2933
sI35
(dp2934
sI68
(dp2935
sI69
(dp2936
sI38
(dp2937
sI39
(dp2938
sI106
(dp2939
sI103
(dp2940
sI61
(dp2941
sI14
g2724
sI15
g2738
sI102
(dp2942
sI67
(dp2943
sI62
(dp2944
sI57
(dp2945
sI27
g2865
sI60
(dp2946
sI29
g2882
sI30
g2896
sI31
g2912
ssI35
(dp2947
I65
(dp2948
sI34
g2934
sI67
(dp2949
sI36
(dp2950
sI37
(dp2951
sI38
(dp2952
sI39
(dp2953
sI106
(dp2954
sI71
(dp2955
sI66
(dp2956
sI102
(dp2957
sI68
(dp2958
sI103
(dp2959
sI61
(dp2960
sI62
(dp2961
sI69
(dp2962
ssI36
(dp2963
I32
g2919
sI35
g2950
sI68
(dp2964
sI37
(dp2965
sI38
(dp2966
sI39
(dp2967
sI71
(dp2968
sI15
g2739
sI16
g2749
sI67
(dp2969
sI102
(dp2970
ssI37
(dp2971
I32
g2920
sI1
g2618
sI66
(dp2972
sI35
g2951
sI36
g2965
sI38
(dp2973
sI41
(dp2974
sI62
(dp2975
ssI38
(dp2976
I32
g2921
sI65
(dp2977
sI34
g2937
sI35
g2952
sI36
g2966
sI37
g2973
sI39
(dp2978
sI71
(dp2979
sI66
(dp2980
sI67
(dp2981
sI68
(dp2982
sI62
(dp2983
ssI39
(dp2984
I65
(dp2985
sI34
g2938
sI35
g2953
sI36
g2967
sI38
g2978
sI71
(dp2986
sI40
(dp2987
sI66
(dp2988
sI67
(dp2989
sI62
(dp2990
ssI40
(dp2991
I1
g2616
sI66
(dp2992
sI67
(dp2993
sI70
(dp2994
sI65
(dp2995
sI41
(dp2996
sI39
g2987
sI105
(dp2997
sI71
(dp2998
ssI41
(dp2999
I40
g2996
sI1
g2617
sI37
g2974
ssI42
(dp3000
I43
(dp3001
sI76
(dp3002
sI46
(dp3003
sI47
(dp3004
sI48
(dp3005
sI49
(dp3006
sI18
g2760
sI19
g2768
ssI43
(dp3007
I72
(dp3008
sI44
(dp3009
sI42
g3001
sI75
(dp3010
sI76
(dp3011
sI77
(dp3012
sI78
(dp3013
sI81
(dp3014
sI122
(dp3015
ssI44
(dp3016
I80
(dp3017
sI43
g3009
sI81
(dp3018
sI72
(dp3019
sI75
(dp3020
sI76
(dp3021
sI45
(dp3022
sI77
(dp3023
sI48
(dp3024
sI49
(dp3025
sI82
(dp3026
sI83
(dp3027
sI84
(dp3028
sI122
(dp3029
sI123
(dp3030
sI126
(dp3031
ssI45
(dp3032
I80
(dp3033
sI83
(dp3034
sI81
(dp3035
sI47
(dp3036
sI44
g3022
sI82
(dp3037
sI46
(dp3038
sI77
(dp3039
sI48
(dp3040
sI49
(dp3041
sI18
g2761
sI19
g2770
sI84
(dp3042
sI86
(dp3043
sI122
(dp3044
sI123
(dp3045
sI126
(dp3046
ssI46
(dp3047
I83
(dp3048
sI82
(dp3049
sI49
(dp3050
sI42
g3003
sI45
g3038
sI47
(dp3051
sI48
(dp3052
sI17
g2753
sI18
g2762
sI19
g2771
sI20
g2786
sI86
(dp3053
sI122
(dp3054
ssI47
(dp3055
I51
(dp3056
sI42
g3004
sI45
g3036
sI46
g3051
sI48
(dp3057
sI81
(dp3058
sI18
g2763
sI19
g2772
sI20
g2787
sI53
(dp3059
sI22
g2807
sI23
g2816
sI24
g2828
sI52
(dp3060
ssI48
(dp3061
I82
(dp3062
sI81
(dp3063
sI77
(dp3064
sI42
g3005
sI44
g3024
sI45
g3040
sI46
g3052
sI47
g3057
sI80
(dp3065
sI49
(dp3066
sI18
g2764
sI83
(dp3067
sI86
(dp3068
sI127
(dp3069
ssI49
(dp3070
I128
(dp3071
sI80
(dp3072
sI131
(dp3073
sI86
(dp3074
sI42
g3006
sI44
g3025
sI45
g3041
sI46
g3050
sI77
(dp3075
sI48
g3066
sI81
(dp3076
sI82
(dp3077
sI83
(dp3078
sI53
(dp3079
sI54
(dp3080
sI87
(dp3081
sI88
(dp3082
sI89
(dp3083
sI50
(dp3084
sI127
(dp3085
ssI50
(dp3086
I128
(dp3087
sI131
(dp3088
sI86
(dp3089
sI87
(dp3090
sI89
(dp3091
sI49
g3084
sI82
(dp3092
sI51
(dp3093
sI20
g2789
sI53
(dp3094
sI54
(dp3095
sI23
g2817
sI24
g2829
sI25
g2845
sI127
(dp3096
sI91
(dp3097
sI52
(dp3098
sI88
(dp3099
sI85
(dp3100
ssI51
(dp3101
I54
(dp3102
sI87
(dp3103
sI50
g3093
sI47
g3056
sI88
(dp3104
sI18
g2759
sI19
g2774
sI20
g2783
sI53
(dp3105
sI22
g2808
sI23
g2815
sI24
g2824
sI25
g2846
sI91
(dp3106
sI127
(dp3107
sI52
(dp3108
ssI52
(dp3109
I51
g3108
sI57
(dp3110
sI47
g3060
sI56
(dp3111
sI50
g3098
sI19
g2780
sI20
g2790
sI21
g2805
sI86
(dp3112
sI23
g2820
sI24
g2836
sI25
g2847
sI58
(dp3113
sI59
(dp3114
sI28
g2875
sI29
g2887
sI53
(dp3115
ssI53
(dp3116
I51
g3105
sI132
(dp3117
sI86
(dp3118
sI87
(dp3119
sI82
(dp3120
sI47
g3059
sI49
g3079
sI50
g3094
sI19
g2776
sI20
g2797
sI21
g2801
sI54
(dp3121
sI23
g2821
sI88
(dp3122
sI52
g3115
sI91
(dp3123
sI85
(dp3124
ssI54
(dp3125
I51
g3102
sI91
(dp3126
sI132
(dp3127
sI133
(dp3128
sI136
(dp3129
sI87
(dp3130
sI82
(dp3131
sI49
g3080
sI50
g3095
sI19
g2777
sI20
g2784
sI53
g3121
sI86
(dp3132
sI55
(dp3133
sI88
(dp3134
sI58
(dp3135
sI59
(dp3136
sI92
(dp3137
sI93
(dp3138
sI94
(dp3139
sI85
(dp3140
ssI55
(dp3141
I96
(dp3142
sI91
(dp3143
sI132
(dp3144
sI86
(dp3145
sI136
(dp3146
sI92
(dp3147
sI87
(dp3148
sI93
(dp3149
sI90
(dp3150
sI54
g3133
sI57
(dp3151
sI56
(dp3152
sI25
g2848
sI58
(dp3153
sI59
(dp3154
sI28
g2878
sI29
g2889
sI94
(dp3155
sI133
(dp3156
ssI56
(dp3157
I96
(dp3158
sI59
(dp3159
sI132
(dp3160
sI92
(dp3161
sI57
(dp3162
sI55
g3152
sI93
(dp3163
sI20
g2788
sI21
g2799
sI23
g2818
sI24
g2830
sI25
g2844
sI58
(dp3164
sI27
g2867
sI28
g2873
sI29
g2886
sI30
g2903
sI52
g3111
ssI57
(dp3165
I33
g2929
sI34
g2945
sI9
g2679
sI10
g2693
sI11
g2704
sI61
(dp3166
sI56
g3162
sI58
(dp3167
sI52
g3110
sI62
(dp3168
sI55
g3151
sI24
g2826
sI25
g2849
sI26
g2858
sI91
(dp3169
sI28
g2876
sI29
g2888
sI30
g2904
sI63
(dp3170
ssI58
(dp3171
I96
(dp3172
sI91
(dp3173
sI9
g2674
sI10
g2690
sI87
(dp3174
sI93
(dp3175
sI92
(dp3176
sI56
g3164
sI52
g3113
sI57
g3167
sI54
g3135
sI55
g3153
sI24
g2832
sI25
g2839
sI26
g2859
sI59
(dp3177
sI28
g2874
sI90
(dp3178
sI137
(dp3179
ssI59
(dp3180
I137
(dp3181
sI138
(dp3182
sI141
(dp3183
sI24
g2833
sI25
g2840
sI26
g2855
sI52
g3114
sI54
g3136
sI55
g3154
sI56
g3159
sI58
g3177
sI60
(dp3184
sI63
(dp3185
sI64
(dp3186
sI87
(dp3187
sI90
(dp3188
sI91
(dp3189
sI92
(dp3190
sI96
(dp3191
sI97
(dp3192
sI98
(dp3193
sI99
(dp3194
ssI60
(dp3195
I64
(dp3196
sI33
g2930
sI34
g2946
sI91
(dp3197
sI101
(dp3198
sI95
(dp3199
sI97
(dp3200
sI96
(dp3201
sI138
(dp3202
sI98
(dp3203
sI141
(dp3204
sI99
(dp3205
sI62
(dp3206
sI137
(dp3207
sI59
g3184
sI92
(dp3208
sI61
(dp3209
sI30
g2906
sI63
(dp3210
ssI61
(dp3211
I32
g2922
sI33
g2931
sI34
g2941
sI35
g2960
sI101
(dp3212
sI97
(dp3213
sI64
(dp3214
sI9
g2672
sI10
g2689
sI98
(dp3215
sI60
g3209
sI62
(dp3216
sI57
g3166
sI137
(dp3217
sI25
g2843
sI26
g2856
sI28
g2872
sI29
g2890
sI30
g2901
sI63
(dp3218
ssI62
(dp3219
I96
(dp3220
sI33
g2928
sI34
g2944
sI35
g2961
sI68
(dp3221
sI37
g2975
sI38
g2983
sI39
g2990
sI61
g3216
sI13
g2719
sI14
g2733
sI15
g2743
sI16
g2751
sI67
(dp3222
sI66
(dp3223
sI57
g3168
sI63
(dp3224
sI60
g3206
sI29
g2884
sI30
g2907
sI31
g2915
ssI63
(dp3225
I64
(dp3226
sI33
g2926
sI98
(dp3227
sI97
(dp3228
sI101
(dp3229
sI142
(dp3230
sI96
(dp3231
sI95
(dp3232
sI61
g3218
sI14
g2726
sI15
g2740
sI92
(dp3233
sI62
g3224
sI57
g3170
sI59
g3185
sI60
g3210
sI29
g2892
sI30
g2905
sI31
g2916
ssI64
(dp3234
I96
(dp3235
sI65
(dp3236
sI68
(dp3237
sI69
(dp3238
sI102
(dp3239
sI97
(dp3240
sI104
(dp3241
sI92
(dp3242
sI95
(dp3243
sI103
(dp3244
sI143
(dp3245
sI101
(dp3246
sI142
(dp3247
sI61
g3214
sI146
(dp3248
sI59
g3186
sI60
g3196
sI29
g2880
sI30
g2900
sI63
g3226
ssI65
(dp3249
I64
g3236
sI96
(dp3250
sI66
(dp3251
sI35
g2948
sI68
(dp3252
sI69
(dp3253
sI38
g2977
sI39
g2985
sI40
g2995
sI106
(dp3254
sI103
(dp3255
sI142
(dp3256
sI143
(dp3257
sI104
(dp3258
sI146
(dp3259
sI67
(dp3260
sI97
(dp3261
sI100
(dp3262
sI102
(dp3263
sI101
(dp3264
ssI66
(dp3265
I33
g2927
sI34
g2933
sI35
g2956
sI142
(dp3266
sI37
g2972
sI38
g2980
sI39
g2988
sI40
g2992
sI106
(dp3267
sI103
(dp3268
sI14
g2725
sI15
g2741
sI67
(dp3269
sI62
g3223
sI69
(dp3270
sI68
(dp3271
sI65
g3251
sI102
(dp3272
sI30
g2897
sI31
g2913
ssI67
(dp3273
I65
g3260
sI34
g2943
sI35
g2949
sI36
g2969
sI101
(dp3274
sI38
g2981
sI39
g2989
sI40
g2993
sI71
(dp3275
sI66
g3269
sI68
(dp3276
sI62
g3222
ssI68
(dp3277
I64
g3237
sI65
g3252
sI34
g2935
sI35
g2958
sI36
g2964
sI69
(dp3278
sI38
g2982
sI97
(dp3279
sI106
(dp3280
sI103
(dp3281
sI66
g3271
sI67
g3276
sI100
(dp3282
sI102
(dp3283
sI62
g3221
sI101
(dp3284
ssI69
(dp3285
I64
g3238
sI65
g3253
sI34
g2936
sI35
g2962
sI68
g3278
sI101
(dp3286
sI70
(dp3287
sI97
(dp3288
sI106
(dp3289
sI103
(dp3290
sI66
g3270
sI100
(dp3291
sI102
(dp3292
ssI70
(dp3293
I69
g3287
sI102
(dp3294
sI71
(dp3295
sI40
g2994
sI105
(dp3296
sI106
(dp3297
sI101
(dp3298
ssI71
(dp3299
I67
g3275
sI36
g2968
sI70
g3295
sI38
g2979
sI39
g2986
sI40
g2998
sI35
g2955
ssI72
(dp3300
I43
g3008
sI73
(dp3301
sI107
(dp3302
sI44
g3019
sI77
(dp3303
sI78
(dp3304
sI111
(dp3305
sI76
(dp3306
sI79
(dp3307
ssI73
(dp3308
I72
g3301
sI74
(dp3309
sI107
(dp3310
sI110
(dp3311
sI111
(dp3312
sI112
(dp3313
sI113
(dp3314
sI116
(dp3315
ssI74
(dp3316
I161
(dp3317
sI75
(dp3318
sI73
g3309
sI107
(dp3319
sI110
(dp3320
sI79
(dp3321
sI112
(dp3322
sI113
(dp3323
sI116
(dp3324
sI78
(dp3325
sI118
(dp3326
sI119
(dp3327
sI111
(dp3328
sI157
(dp3329
sI158
(dp3330
sI117
(dp3331
ssI75
(dp3332
I161
(dp3333
sI155
(dp3334
sI44
g3020
sI74
g3318
sI43
g3010
sI76
(dp3335
sI77
(dp3336
sI78
(dp3337
sI79
(dp3338
sI112
(dp3339
sI115
(dp3340
sI116
(dp3341
sI110
(dp3342
sI118
(dp3343
sI119
(dp3344
sI121
(dp3345
sI111
(dp3346
sI157
(dp3347
sI158
(dp3348
sI117
(dp3349
ssI76
(dp3350
I43
g3011
sI72
g3306
sI42
g3002
sI75
g3335
sI44
g3021
sI77
(dp3351
sI78
(dp3352
sI79
(dp3353
sI117
(dp3354
sI118
(dp3355
sI121
(dp3356
sI157
(dp3357
ssI77
(dp3358
I75
g3336
sI81
(dp3359
sI72
g3303
sI76
g3351
sI43
g3012
sI44
g3023
sI45
g3039
sI78
(dp3360
sI48
g3064
sI49
g3075
sI82
(dp3361
sI83
(dp3362
sI84
(dp3363
sI116
(dp3364
ssI78
(dp3365
I43
g3013
sI72
g3304
sI74
g3325
sI75
g3337
sI76
g3352
sI77
g3360
sI79
(dp3366
sI112
(dp3367
sI115
(dp3368
sI116
(dp3369
sI117
(dp3370
sI118
(dp3371
sI121
(dp3372
ssI79
(dp3373
I112
(dp3374
sI162
(dp3375
sI163
(dp3376
sI166
(dp3377
sI72
g3307
sI74
g3321
sI75
g3338
sI76
g3353
sI78
g3366
sI80
(dp3378
sI115
(dp3379
sI84
(dp3380
sI117
(dp3381
sI118
(dp3382
sI83
(dp3383
sI121
(dp3384
sI122
(dp3385
sI123
(dp3386
sI124
(dp3387
sI116
(dp3388
ssI80
(dp3389
I162
(dp3390
sI163
(dp3391
sI166
(dp3392
sI81
(dp3393
sI44
g3017
sI45
g3033
sI79
g3378
sI48
g3065
sI49
g3072
sI82
(dp3394
sI83
(dp3395
sI116
(dp3396
sI117
(dp3397
sI121
(dp3398
sI120
(dp3399
sI84
(dp3400
sI122
(dp3401
sI123
(dp3402
sI124
(dp3403
sI126
(dp3404
ssI81
(dp3405
I80
g3393
sI162
(dp3406
sI43
g3014
sI44
g3018
sI45
g3035
sI77
g3359
sI47
g3058
sI48
g3063
sI49
g3076
sI82
(dp3407
sI83
(dp3408
sI84
(dp3409
sI122
(dp3410
sI123
(dp3411
sI126
(dp3412
ssI82
(dp3413
I80
g3394
sI86
(dp3414
sI81
g3407
sI44
g3026
sI45
g3037
sI46
g3049
sI77
g3361
sI48
g3062
sI49
g3077
sI50
g3092
sI83
(dp3415
sI53
g3120
sI54
g3131
sI87
(dp3416
sI88
(dp3417
sI121
(dp3418
ssI83
(dp3419
I80
g3395
sI123
(dp3420
sI81
g3408
sI167
(dp3421
sI44
g3027
sI45
g3034
sI46
g3048
sI77
g3362
sI48
g3067
sI49
g3078
sI82
g3415
sI84
(dp3422
sI117
(dp3423
sI120
(dp3424
sI121
(dp3425
sI122
(dp3426
sI79
g3383
sI126
(dp3427
ssI84
(dp3428
I128
(dp3429
sI129
(dp3430
sI167
(dp3431
sI168
(dp3432
sI171
(dp3433
sI44
g3028
sI45
g3042
sI77
g3363
sI79
g3380
sI80
g3400
sI81
g3409
sI83
g3422
sI85
(dp3434
sI88
(dp3435
sI89
(dp3436
sI117
(dp3437
sI120
(dp3438
sI121
(dp3439
sI122
(dp3440
sI125
(dp3441
sI126
(dp3442
sI127
(dp3443
ssI85
(dp3444
I128
(dp3445
sI129
(dp3446
sI131
(dp3447
sI86
(dp3448
sI167
(dp3449
sI168
(dp3450
sI171
(dp3451
sI50
g3100
sI84
g3434
sI53
g3124
sI54
g3140
sI87
(dp3452
sI88
(dp3453
sI89
(dp3454
sI122
(dp3455
sI125
(dp3456
sI126
(dp3457
sI127
(dp3458
ssI86
(dp3459
I128
(dp3460
sI131
(dp3461
sI82
g3414
sI167
(dp3462
sI87
(dp3463
sI45
g3043
sI46
g3053
sI48
g3068
sI49
g3074
sI50
g3089
sI52
g3112
sI53
g3118
sI54
g3132
sI55
g3145
sI88
(dp3464
sI89
(dp3465
sI127
(dp3466
sI85
g3448
ssI87
(dp3467
I51
g3103
sI126
(dp3468
sI91
(dp3469
sI82
g3416
sI86
g3463
sI94
(dp3470
sI18
g2766
sI49
g3081
sI50
g3090
sI19
g2769
sI20
g2785
sI21
g2800
sI54
g3130
sI55
g3148
sI88
(dp3471
sI58
g3174
sI59
g3187
sI92
(dp3472
sI93
(dp3473
sI85
g3452
sI53
g3119
ssI88
(dp3474
I128
(dp3475
sI51
g3104
sI131
(dp3476
sI86
g3464
sI82
g3417
sI89
(dp3477
sI49
g3082
sI50
g3099
sI19
g2773
sI20
g2795
sI53
g3122
sI54
g3134
sI87
g3471
sI84
g3435
sI122
(dp3478
sI127
(dp3479
sI125
(dp3480
sI126
(dp3481
sI85
g3453
ssI89
(dp3482
I128
(dp3483
sI126
(dp3484
sI131
(dp3485
sI132
(dp3486
sI133
(dp3487
sI134
(dp3488
sI122
(dp3489
sI172
(dp3490
sI173
(dp3491
sI125
(dp3492
sI176
(dp3493
sI49
g3083
sI50
g3091
sI84
g3436
sI85
g3454
sI86
g3465
sI88
g3477
sI90
(dp3494
sI93
(dp3495
sI94
(dp3496
sI127
(dp3497
ssI90
(dp3498
I130
(dp3499
sI131
(dp3500
sI132
(dp3501
sI133
(dp3502
sI134
(dp3503
sI136
(dp3504
sI172
(dp3505
sI173
(dp3506
sI176
(dp3507
sI91
(dp3508
sI126
(dp3509
sI55
g3150
sI89
g3494
sI58
g3178
sI59
g3188
sI92
(dp3510
sI93
(dp3511
sI94
(dp3512
sI127
(dp3513
ssI91
(dp3514
I19
g2781
sI132
(dp3515
sI133
(dp3516
sI136
(dp3517
sI92
(dp3518
sI87
g3469
sI172
(dp3519
sI93
(dp3520
sI50
g3097
sI51
g3106
sI20
g2796
sI53
g3123
sI54
g3126
sI55
g3143
sI57
g3169
sI58
g3173
sI59
g3189
sI60
g3197
sI90
g3508
sI94
(dp3521
ssI92
(dp3522
I64
g3242
sI96
(dp3523
sI98
(dp3524
sI91
g3518
sI97
(dp3525
sI87
g3472
sI93
(dp3526
sI56
g3161
sI131
(dp3527
sI90
g3510
sI54
g3137
sI55
g3147
sI24
g2825
sI25
g2842
sI26
g2857
sI59
g3190
sI60
g3208
sI58
g3176
sI63
g3233
ssI93
(dp3528
I130
(dp3529
sI131
(dp3530
sI132
(dp3531
sI133
(dp3532
sI177
(dp3533
sI136
(dp3534
sI87
g3473
sI89
g3495
sI56
g3163
sI54
g3138
sI55
g3149
sI24
g2827
sI25
g2841
sI58
g3175
sI91
g3520
sI92
g3526
sI90
g3511
sI94
(dp3535
sI127
(dp3536
ssI94
(dp3537
I98
(dp3538
sI99
(dp3539
sI132
(dp3540
sI136
(dp3541
sI137
(dp3542
sI138
(dp3543
sI55
g3155
sI130
(dp3544
sI177
(dp3545
sI178
(dp3546
sI131
(dp3547
sI139
(dp3548
sI181
(dp3549
sI54
g3139
sI87
g3470
sI127
(dp3550
sI89
g3496
sI90
g3512
sI91
g3521
sI93
g3535
sI95
(dp3551
ssI95
(dp3552
I64
g3243
sI96
(dp3553
sI98
(dp3554
sI99
(dp3555
sI132
(dp3556
sI97
(dp3557
sI136
(dp3558
sI137
(dp3559
sI138
(dp3560
sI135
(dp3561
sI141
(dp3562
sI177
(dp3563
sI178
(dp3564
sI131
(dp3565
sI139
(dp3566
sI181
(dp3567
sI60
g3199
sI94
g3551
sI63
g3232
ssI96
(dp3568
I64
g3235
sI65
g3250
sI98
(dp3569
sI99
(dp3570
sI97
(dp3571
sI92
g3523
sI95
g3553
sI141
(dp3572
sI177
(dp3573
sI56
g3158
sI137
(dp3574
sI55
g3142
sI24
g2823
sI25
g2838
sI58
g3172
sI59
g3191
sI60
g3201
sI138
(dp3575
sI62
g3220
sI63
g3231
ssI97
(dp3576
I64
g3240
sI65
g3261
sI98
(dp3577
sI68
g3279
sI69
g3288
sI102
(dp3578
sI96
g3571
sI104
(dp3579
sI28
g2871
sI95
g3557
sI103
(dp3580
sI101
(dp3581
sI63
g3228
sI61
g3213
sI92
g3525
sI136
(dp3582
sI59
g3192
sI60
g3200
sI29
g2881
sI30
g2899
sI31
g2914
ssI98
(dp3583
I96
g3569
sI97
g3577
sI99
(dp3584
sI132
(dp3585
sI135
(dp3586
sI136
(dp3587
sI92
g3524
sI95
g3554
sI141
(dp3588
sI61
g3215
sI94
g3538
sI138
(dp3589
sI137
(dp3590
sI59
g3193
sI60
g3203
sI29
g2885
sI30
g2902
sI63
g3227
ssI99
(dp3591
I96
g3570
sI98
g3584
sI100
(dp3592
sI103
(dp3593
sI104
(dp3594
sI137
(dp3595
sI138
(dp3596
sI135
(dp3597
sI141
(dp3598
sI142
(dp3599
sI143
(dp3600
sI144
(dp3601
sI136
(dp3602
sI182
(dp3603
sI183
(dp3604
sI132
(dp3605
sI186
(dp3606
sI59
g3194
sI60
g3205
sI94
g3539
sI95
g3555
ssI100
(dp3607
I65
g3262
sI99
g3592
sI68
g3282
sI69
g3291
sI102
(dp3608
sI103
(dp3609
sI104
(dp3610
sI137
(dp3611
sI140
(dp3612
sI141
(dp3613
sI142
(dp3614
sI143
(dp3615
sI144
(dp3616
sI136
(dp3617
sI146
(dp3618
sI182
(dp3619
sI183
(dp3620
sI186
(dp3621
sI101
(dp3622
ssI101
(dp3623
I64
g3246
sI65
g3264
sI67
g3274
sI68
g3284
sI69
g3286
sI70
g3298
sI97
g3581
sI104
(dp3624
sI102
(dp3625
sI103
(dp3626
sI142
(dp3627
sI61
g3212
sI146
(dp3628
sI182
(dp3629
sI100
g3622
sI143
(dp3630
sI60
g3198
sI29
g2883
sI30
g2898
sI63
g3229
ssI102
(dp3631
I64
g3239
sI33
g2925
sI34
g2942
sI35
g2957
sI36
g2970
sI69
g3292
sI70
g3294
sI65
g3263
sI106
(dp3632
sI103
(dp3633
sI66
g3272
sI141
(dp3634
sI97
g3578
sI68
g3283
sI101
g3625
sI100
g3608
ssI103
(dp3635
I64
g3244
sI65
g3255
sI34
g2940
sI35
g2959
sI68
g3281
sI69
g3290
sI102
g3633
sI97
g3580
sI104
(dp3636
sI137
(dp3637
sI140
(dp3638
sI66
g3268
sI142
(dp3639
sI141
(dp3640
sI146
(dp3641
sI99
g3593
sI100
g3609
sI143
(dp3642
sI101
g3626
ssI104
(dp3643
I64
g3241
sI65
g3258
sI99
g3594
sI100
g3610
sI101
g3624
sI97
g3579
sI105
(dp3644
sI103
g3636
sI140
(dp3645
sI141
(dp3646
sI142
(dp3647
sI143
(dp3648
sI146
(dp3649
sI137
(dp3650
ssI105
(dp3651
I70
g3296
sI145
(dp3652
sI40
g2997
sI106
(dp3653
sI141
(dp3654
sI142
(dp3655
sI104
g3644
sI146
(dp3656
ssI106
(dp3657
I65
g3254
sI34
g2939
sI35
g2954
sI68
g3280
sI69
g3289
sI70
g3297
sI105
g3653
sI66
g3267
sI102
g3632
ssI107
(dp3658
I6
g2647
sI72
g3302
sI73
g3310
sI74
g3319
sI108
(dp3659
sI111
(dp3660
sI112
(dp3661
sI113
(dp3662
ssI108
(dp3663
I192
(dp3664
sI6
g2648
sI107
g3659
sI109
(dp3665
sI147
(dp3666
sI148
(dp3667
sI151
(dp3668
ssI109
(dp3669
I192
(dp3670
sI193
(dp3671
sI196
(dp3672
sI6
g2649
sI108
g3665
sI110
(dp3673
sI114
(dp3674
sI147
(dp3675
sI150
(dp3676
sI151
(dp3677
sI152
(dp3678
sI153
(dp3679
sI154
(dp3680
ssI110
(dp3681
I192
(dp3682
sI193
(dp3683
sI196
(dp3684
sI73
g3311
sI74
g3320
sI75
g3342
sI109
g3673
sI111
(dp3685
sI112
(dp3686
sI113
(dp3687
sI114
(dp3688
sI147
(dp3689
sI150
(dp3690
sI151
(dp3691
sI152
(dp3692
sI153
(dp3693
sI154
(dp3694
sI156
(dp3695
ssI111
(dp3696
I192
(dp3697
sI107
g3660
sI72
g3305
sI73
g3312
sI74
g3328
sI75
g3346
sI110
g3685
sI112
(dp3698
sI113
(dp3699
sI114
(dp3700
sI152
(dp3701
sI153
(dp3702
sI156
(dp3703
ssI112
(dp3704
I75
g3339
sI73
g3313
sI74
g3322
sI107
g3661
sI78
g3367
sI79
g3374
sI113
(dp3705
sI116
(dp3706
sI110
g3686
sI118
(dp3707
sI119
(dp3708
sI111
g3698
sI151
(dp3709
sI117
(dp3710
ssI113
(dp3711
I73
g3314
sI74
g3323
sI107
g3662
sI110
g3687
sI111
g3699
sI112
g3705
sI114
(dp3712
sI147
(dp3713
sI150
(dp3714
sI151
(dp3715
sI152
(dp3716
sI153
(dp3717
sI156
(dp3718
ssI114
(dp3719
I147
(dp3720
sI197
(dp3721
sI198
(dp3722
sI201
(dp3723
sI151
(dp3724
sI109
g3674
sI110
g3688
sI111
g3700
sI113
g3712
sI118
(dp3725
sI115
(dp3726
sI150
(dp3727
sI119
(dp3728
sI152
(dp3729
sI156
(dp3730
sI157
(dp3731
sI158
(dp3732
sI159
(dp3733
ssI115
(dp3734
I161
(dp3735
sI155
(dp3736
sI197
(dp3737
sI198
(dp3738
sI201
(dp3739
sI75
g3340
sI78
g3368
sI79
g3379
sI114
g3726
sI116
(dp3740
sI117
(dp3741
sI118
(dp3742
sI151
(dp3743
sI152
(dp3744
sI119
(dp3745
sI156
(dp3746
sI157
(dp3747
sI158
(dp3748
sI159
(dp3749
ssI116
(dp3750
I112
g3706
sI197
(dp3751
sI161
(dp3752
sI73
g3315
sI74
g3324
sI75
g3341
sI77
g3364
sI78
g3369
sI79
g3388
sI80
g3396
sI115
g3740
sI117
(dp3753
sI118
(dp3754
sI119
(dp3755
sI157
(dp3756
sI158
(dp3757
sI159
(dp3758
ssI117
(dp3759
I112
g3710
sI115
g3741
sI156
(dp3760
sI74
g3331
sI75
g3349
sI76
g3354
sI78
g3370
sI79
g3381
sI80
g3397
sI83
g3423
sI84
g3437
sI118
(dp3761
sI121
(dp3762
sI116
g3753
sI122
(dp3763
sI123
(dp3764
sI124
(dp3765
ssI118
(dp3766
I161
(dp3767
sI74
g3326
sI75
g3343
sI76
g3355
sI78
g3371
sI79
g3382
sI112
g3707
sI114
g3725
sI115
g3742
sI116
g3754
sI117
g3761
sI119
(dp3768
sI152
(dp3769
sI155
(dp3770
sI156
(dp3771
sI157
(dp3772
sI158
(dp3773
ssI119
(dp3774
I152
(dp3775
sI155
(dp3776
sI156
(dp3777
sI157
(dp3778
sI158
(dp3779
sI161
(dp3780
sI162
(dp3781
sI163
(dp3782
sI164
(dp3783
sI202
(dp3784
sI203
(dp3785
sI74
g3327
sI75
g3344
sI206
(dp3786
sI112
g3708
sI114
g3728
sI115
g3745
sI116
g3755
sI118
g3768
sI120
(dp3787
sI123
(dp3788
sI124
(dp3789
ssI120
(dp3790
I160
(dp3791
sI161
(dp3792
sI162
(dp3793
sI163
(dp3794
sI164
(dp3795
sI166
(dp3796
sI156
(dp3797
sI202
(dp3798
sI203
(dp3799
sI206
(dp3800
sI80
g3399
sI83
g3424
sI84
g3438
sI119
g3787
sI121
(dp3801
sI122
(dp3802
sI123
(dp3803
sI124
(dp3804
sI157
(dp3805
ssI121
(dp3806
I162
(dp3807
sI163
(dp3808
sI166
(dp3809
sI202
(dp3810
sI75
g3345
sI76
g3356
sI78
g3372
sI79
g3384
sI80
g3398
sI82
g3418
sI83
g3425
sI84
g3439
sI117
g3762
sI120
g3801
sI122
(dp3811
sI123
(dp3812
sI124
(dp3813
ssI122
(dp3814
I128
(dp3815
sI129
(dp3816
sI126
(dp3817
sI127
(dp3818
sI161
(dp3819
sI43
g3015
sI44
g3029
sI45
g3044
sI46
g3054
sI79
g3385
sI80
g3401
sI81
g3410
sI83
g3426
sI84
g3440
sI85
g3455
sI121
g3811
sI88
g3478
sI89
g3489
sI123
(dp3820
sI120
g3802
sI117
g3763
ssI123
(dp3821
I160
(dp3822
sI161
(dp3823
sI162
(dp3824
sI163
(dp3825
sI166
(dp3826
sI44
g3030
sI45
g3045
sI79
g3386
sI80
g3402
sI81
g3411
sI83
g3420
sI117
g3764
sI119
g3788
sI120
g3803
sI121
g3812
sI122
g3820
sI207
(dp3827
sI124
(dp3828
sI157
(dp3829
ssI124
(dp3830
I128
(dp3831
sI129
(dp3832
sI162
(dp3833
sI166
(dp3834
sI161
(dp3835
sI168
(dp3836
sI169
(dp3837
sI160
(dp3838
sI208
(dp3839
sI207
(dp3840
sI79
g3387
sI80
g3403
sI157
(dp3841
sI167
(dp3842
sI211
(dp3843
sI117
g3765
sI119
g3789
sI120
g3804
sI121
g3813
sI123
g3828
sI125
(dp3844
ssI125
(dp3845
I128
(dp3846
sI129
(dp3847
sI162
(dp3848
sI165
(dp3849
sI166
(dp3850
sI161
(dp3851
sI168
(dp3852
sI169
(dp3853
sI171
(dp3854
sI207
(dp3855
sI208
(dp3856
sI211
(dp3857
sI84
g3441
sI85
g3456
sI88
g3480
sI89
g3492
sI124
g3844
sI167
(dp3858
sI126
(dp3859
sI127
(dp3860
ssI126
(dp3861
I128
(dp3862
sI129
(dp3863
sI167
(dp3864
sI168
(dp3865
sI171
(dp3866
sI44
g3031
sI45
g3046
sI125
g3859
sI80
g3404
sI81
g3412
sI83
g3427
sI84
g3442
sI85
g3457
sI87
g3468
sI88
g3481
sI89
g3484
sI90
g3509
sI207
(dp3867
sI122
g3817
sI127
(dp3868
ssI127
(dp3869
I128
(dp3870
sI131
(dp3871
sI132
(dp3872
sI133
(dp3873
sI134
(dp3874
sI122
g3818
sI126
g3868
sI125
g3860
sI48
g3069
sI49
g3085
sI50
g3096
sI51
g3107
sI84
g3443
sI85
g3458
sI86
g3466
sI88
g3479
sI89
g3497
sI90
g3513
sI93
g3536
sI94
g3550
sI166
(dp3875
ssI128
(dp3876
I129
(dp3877
sI162
(dp3878
sI165
(dp3879
sI166
(dp3880
sI167
(dp3881
sI168
(dp3882
sI171
(dp3883
sI49
g3071
sI50
g3087
sI84
g3429
sI85
g3445
sI86
g3460
sI88
g3475
sI89
g3483
sI122
g3815
sI124
g3831
sI125
g3846
sI126
g3862
sI127
g3870
ssI129
(dp3884
I128
g3877
sI130
(dp3885
sI166
(dp3886
sI165
(dp3887
sI134
(dp3888
sI167
(dp3889
sI171
(dp3890
sI172
(dp3891
sI162
(dp3892
sI174
(dp3893
sI173
(dp3894
sI84
g3430
sI85
g3446
sI213
(dp3895
sI216
(dp3896
sI212
(dp3897
sI122
g3816
sI124
g3832
sI125
g3847
sI126
g3863
sI133
(dp3898
ssI130
(dp3899
I129
g3885
sI131
(dp3900
sI132
(dp3901
sI133
(dp3902
sI134
(dp3903
sI167
(dp3904
sI170
(dp3905
sI171
(dp3906
sI172
(dp3907
sI173
(dp3908
sI174
(dp3909
sI176
(dp3910
sI212
(dp3911
sI213
(dp3912
sI216
(dp3913
sI90
g3499
sI93
g3529
sI94
g3544
sI166
(dp3914
ssI131
(dp3915
I130
g3900
sI132
(dp3916
sI133
(dp3917
sI134
(dp3918
sI172
(dp3919
sI173
(dp3920
sI176
(dp3921
sI49
g3073
sI50
g3088
sI212
(dp3922
sI85
g3447
sI86
g3461
sI88
g3476
sI89
g3485
sI90
g3500
sI127
g3871
sI92
g3527
sI93
g3530
sI94
g3547
sI95
g3565
ssI132
(dp3923
I98
g3585
sI99
g3605
sI133
(dp3924
sI136
(dp3925
sI137
(dp3926
sI171
(dp3927
sI127
g3872
sI130
g3901
sI138
(dp3928
sI131
g3916
sI53
g3117
sI54
g3127
sI55
g3144
sI56
g3160
sI89
g3486
sI90
g3501
sI91
g3515
sI93
g3531
sI94
g3540
sI95
g3556
ssI133
(dp3929
I129
g3898
sI130
g3902
sI131
g3917
sI132
g3924
sI134
(dp3930
sI167
(dp3931
sI170
(dp3932
sI171
(dp3933
sI172
(dp3934
sI173
(dp3935
sI176
(dp3936
sI217
(dp3937
sI54
g3128
sI55
g3156
sI89
g3487
sI90
g3502
sI91
g3516
sI93
g3532
sI127
g3873
ssI134
(dp3938
I129
g3888
sI130
g3903
sI131
g3918
sI133
g3930
sI135
(dp3939
sI138
(dp3940
sI139
(dp3941
sI89
g3488
sI90
g3503
sI167
(dp3942
sI170
(dp3943
sI171
(dp3944
sI172
(dp3945
sI173
(dp3946
sI176
(dp3947
sI177
(dp3948
sI178
(dp3949
sI179
(dp3950
sI217
(dp3951
sI218
(dp3952
sI221
(dp3953
sI127
g3874
ssI135
(dp3954
I98
g3586
sI99
g3597
sI134
g3939
sI136
(dp3955
sI137
(dp3956
sI138
(dp3957
sI171
(dp3958
sI172
(dp3959
sI175
(dp3960
sI176
(dp3961
sI177
(dp3962
sI178
(dp3963
sI179
(dp3964
sI139
(dp3965
sI181
(dp3966
sI217
(dp3967
sI218
(dp3968
sI221
(dp3969
sI95
g3561
ssI136
(dp3970
I97
g3582
sI98
g3587
sI99
g3602
sI100
g3617
sI135
g3955
sI137
(dp3971
sI138
(dp3972
sI139
(dp3973
sI217
(dp3974
sI177
(dp3975
sI178
(dp3976
sI181
(dp3977
sI54
g3129
sI55
g3146
sI132
g3925
sI90
g3504
sI91
g3517
sI93
g3534
sI94
g3541
sI95
g3558
ssI137
(dp3978
I96
g3574
sI176
(dp3979
sI98
g3590
sI99
g3595
sI100
g3611
sI103
g3637
sI104
g3650
sI138
(dp3980
sI135
g3956
sI141
(dp3981
sI142
(dp3982
sI143
(dp3983
sI144
(dp3984
sI136
g3971
sI132
g3926
sI58
g3179
sI59
g3181
sI60
g3207
sI61
g3217
sI94
g3542
sI95
g3559
ssI138
(dp3985
I96
g3575
sI98
g3589
sI99
g3596
sI132
g3928
sI134
g3940
sI135
g3957
sI136
g3972
sI137
g3980
sI139
(dp3986
sI172
(dp3987
sI223
(dp3988
sI175
(dp3989
sI176
(dp3990
sI177
(dp3991
sI178
(dp3992
sI181
(dp3993
sI218
(dp3994
sI59
g3182
sI60
g3202
sI94
g3543
sI95
g3560
ssI139
(dp3995
I176
(dp3996
sI226
(dp3997
sI134
g3941
sI135
g3965
sI136
g3973
sI172
(dp3998
sI138
g3986
sI140
(dp3999
sI223
(dp4000
sI175
(dp4001
sI144
(dp4002
sI177
(dp4003
sI181
(dp4004
sI182
(dp4005
sI183
(dp4006
sI184
(dp4007
sI143
(dp4008
sI222
(dp4009
sI94
g3548
sI95
g3566
ssI140
(dp4010
I176
(dp4011
sI226
(dp4012
sI100
g3612
sI103
g3638
sI104
g3645
sI139
g3999
sI141
(dp4013
sI142
(dp4014
sI143
(dp4015
sI144
(dp4016
sI177
(dp4017
sI180
(dp4018
sI181
(dp4019
sI182
(dp4020
sI183
(dp4021
sI184
(dp4022
sI186
(dp4023
sI222
(dp4024
sI223
(dp4025
ssI141
(dp4026
I137
g3981
sI140
g4013
sI142
(dp4027
sI143
(dp4028
sI144
(dp4029
sI95
g3562
sI182
(dp4030
sI183
(dp4031
sI186
(dp4032
sI59
g3183
sI60
g3204
sI226
(dp4033
sI222
(dp4034
sI223
(dp4035
sI96
g3572
sI98
g3588
sI99
g3598
sI100
g3613
sI102
g3634
sI103
g3640
sI104
g3646
sI105
g3654
ssI142
(dp4036
I64
g3247
sI65
g3256
sI66
g3266
sI99
g3599
sI100
g3614
sI101
g3627
sI103
g3639
sI104
g3647
sI105
g3655
sI140
g4014
sI141
g4027
sI143
(dp4037
sI146
(dp4038
sI181
(dp4039
sI137
g3982
sI63
g3230
ssI143
(dp4040
I64
g3245
sI65
g3257
sI99
g3600
sI100
g3615
sI101
g3630
sI103
g3642
sI104
g3648
sI137
g3983
sI139
g4008
sI140
g4015
sI141
g4028
sI142
g4037
sI144
(dp4041
sI177
(dp4042
sI180
(dp4043
sI181
(dp4044
sI182
(dp4045
sI183
(dp4046
sI186
(dp4047
sI223
(dp4048
ssI144
(dp4049
I2
g2622
sI99
g3601
sI100
g3616
sI177
(dp4050
sI137
g3984
sI139
g4002
sI140
g4016
sI141
g4029
sI143
g4041
sI145
(dp4051
sI180
(dp4052
sI181
(dp4053
sI182
(dp4054
sI183
(dp4055
sI186
(dp4056
ssI145
(dp4057
I2
g2623
sI105
g3652
sI144
g4051
sI146
(dp4058
sI181
(dp4059
sI182
(dp4060
sI185
(dp4061
sI186
(dp4062
ssI146
(dp4063
I64
g3248
sI65
g3259
sI2
g2624
sI100
g3618
sI101
g3628
sI103
g3641
sI104
g3649
sI105
g3656
sI142
g4038
sI145
g4058
ssI147
(dp4064
I6
g2650
sI108
g3666
sI109
g3675
sI110
g3689
sI113
g3713
sI114
g3720
sI148
(dp4065
sI151
(dp4066
sI152
(dp4067
sI153
(dp4068
sI154
(dp4069
ssI148
(dp4070
I227
(dp4071
sI5
g2643
sI6
g2651
sI108
g3667
sI147
g4065
sI149
(dp4072
sI187
(dp4073
sI188
(dp4074
sI191
(dp4075
ssI149
(dp4076
I192
(dp4077
sI193
(dp4078
sI194
(dp4079
sI227
(dp4080
sI228
(dp4081
sI5
g2644
sI231
(dp4082
sI148
g4072
sI150
(dp4083
sI154
(dp4084
sI187
(dp4085
sI190
(dp4086
sI191
(dp4087
ssI150
(dp4088
I192
(dp4089
sI193
(dp4090
sI194
(dp4091
sI227
(dp4092
sI196
(dp4093
sI231
(dp4094
sI109
g3676
sI110
g3690
sI113
g3714
sI114
g3727
sI153
(dp4095
sI149
g4083
sI151
(dp4096
sI152
(dp4097
sI228
(dp4098
sI154
(dp4099
sI187
(dp4100
sI190
(dp4101
sI191
(dp4102
ssI151
(dp4103
I192
(dp4104
sI193
(dp4105
sI227
(dp4106
sI147
g4066
sI6
g2652
sI108
g3668
sI109
g3677
sI110
g3691
sI112
g3709
sI113
g3715
sI114
g3724
sI115
g3743
sI196
(dp4107
sI150
g4096
sI152
(dp4108
sI153
(dp4109
sI154
(dp4110
ssI152
(dp4111
I147
g4067
sI150
g4097
sI151
g4108
sI109
g3678
sI110
g3692
sI111
g3701
sI113
g3716
sI114
g3729
sI115
g3744
sI118
g3769
sI119
g3775
sI153
(dp4112
sI156
(dp4113
sI157
(dp4114
sI158
(dp4115
ssI153
(dp4116
I192
(dp4117
sI193
(dp4118
sI196
(dp4119
sI109
g3679
sI110
g3693
sI111
g3702
sI113
g3717
sI147
g4068
sI150
g4095
sI151
g4109
sI152
g4112
sI154
(dp4120
sI187
(dp4121
sI190
(dp4122
sI191
(dp4123
ssI154
(dp4124
I192
(dp4125
sI193
(dp4126
sI191
(dp4127
sI195
(dp4128
sI196
(dp4129
sI197
(dp4130
sI198
(dp4131
sI199
(dp4132
sI232
(dp4133
sI233
(dp4134
sI109
g3680
sI110
g3694
sI190
(dp4135
sI147
g4069
sI149
g4084
sI150
g4099
sI151
g4110
sI153
g4120
sI155
(dp4136
sI158
(dp4137
sI159
(dp4138
ssI155
(dp4139
I192
(dp4140
sI195
(dp4141
sI196
(dp4142
sI197
(dp4143
sI198
(dp4144
sI199
(dp4145
sI232
(dp4146
sI201
(dp4147
sI75
g3334
sI236
(dp4148
sI115
g3736
sI118
g3770
sI119
g3776
sI154
g4136
sI233
(dp4149
sI156
(dp4150
sI157
(dp4151
sI158
(dp4152
sI159
(dp4153
ssI156
(dp4154
I197
(dp4155
sI198
(dp4156
sI232
(dp4157
sI201
(dp4158
sI110
g3695
sI111
g3703
sI113
g3718
sI114
g3730
sI115
g3746
sI117
g3760
sI118
g3771
sI119
g3777
sI120
g3797
sI152
g4113
sI155
g4150
sI157
(dp4159
sI158
(dp4160
sI159
(dp4161
ssI157
(dp4162
I161
(dp4163
sI162
(dp4164
sI155
g4151
sI164
(dp4165
sI163
(dp4166
sI156
g4159
sI74
g3329
sI75
g3347
sI76
g3357
sI152
g4114
sI114
g3731
sI115
g3747
sI116
g3756
sI118
g3772
sI119
g3778
sI120
g3805
sI123
g3829
sI124
g3841
sI158
(dp4167
ssI158
(dp4168
I192
(dp4169
sI195
(dp4170
sI196
(dp4171
sI197
(dp4172
sI198
(dp4173
sI201
(dp4174
sI74
g3330
sI75
g3348
sI237
(dp4175
sI114
g3732
sI115
g3748
sI116
g3757
sI118
g3773
sI119
g3779
sI152
g4115
sI154
g4137
sI155
g4152
sI156
g4160
sI157
g4167
sI159
(dp4176
ssI159
(dp4177
I160
(dp4178
sI163
(dp4179
sI164
(dp4180
sI197
(dp4181
sI198
(dp4182
sI201
(dp4183
sI202
(dp4184
sI203
(dp4185
sI204
(dp4186
sI237
(dp4187
sI238
(dp4188
sI241
(dp4189
sI114
g3733
sI115
g3749
sI116
g3758
sI196
(dp4190
sI154
g4138
sI155
g4153
sI156
g4161
sI158
g4176
sI195
(dp4191
ssI160
(dp4192
I161
(dp4193
sI162
(dp4194
sI163
(dp4195
sI164
(dp4196
sI197
(dp4197
sI200
(dp4198
sI201
(dp4199
sI202
(dp4200
sI203
(dp4201
sI204
(dp4202
sI237
(dp4203
sI206
(dp4204
sI241
(dp4205
sI238
(dp4206
sI120
g3791
sI123
g3822
sI124
g3838
sI159
g4178
ssI161
(dp4207
I160
g4193
sI162
(dp4208
sI163
(dp4209
sI164
(dp4210
sI74
g3317
sI75
g3333
sI203
(dp4211
sI237
(dp4212
sI206
(dp4213
sI157
g4163
sI115
g3735
sI116
g3752
sI118
g3767
sI119
g3780
sI120
g3792
sI202
(dp4214
sI122
g3819
sI123
g3823
sI124
g3835
sI125
g3851
ssI162
(dp4215
I128
g3878
sI129
g3892
sI163
(dp4216
sI166
(dp4217
sI161
g4208
sI168
(dp4218
sI169
(dp4219
sI160
g4194
sI79
g3375
sI80
g3390
sI81
g3406
sI167
(dp4220
sI157
g4164
sI119
g3781
sI120
g3793
sI121
g3807
sI201
(dp4221
sI123
g3824
sI124
g3833
sI125
g3848
ssI163
(dp4222
I160
g4195
sI161
g4209
sI162
g4216
sI164
(dp4223
sI197
(dp4224
sI200
(dp4225
sI201
(dp4226
sI202
(dp4227
sI203
(dp4228
sI206
(dp4229
sI79
g3376
sI80
g3391
sI242
(dp4230
sI119
g3782
sI120
g3794
sI121
g3808
sI123
g3825
sI157
g4166
sI159
g4179
ssI164
(dp4231
I160
g4196
sI161
g4210
sI163
g4223
sI197
(dp4232
sI165
(dp4233
sI168
(dp4234
sI169
(dp4235
sI202
(dp4236
sI206
(dp4237
sI207
(dp4238
sI208
(dp4239
sI209
(dp4240
sI242
(dp4241
sI243
(dp4242
sI246
(dp4243
sI119
g3783
sI120
g3795
sI201
(dp4244
sI200
(dp4245
sI157
g4165
sI159
g4180
ssI165
(dp4246
I128
g3879
sI129
g3887
sI164
g4233
sI166
(dp4247
sI167
(dp4248
sI168
(dp4249
sI169
(dp4250
sI202
(dp4251
sI205
(dp4252
sI206
(dp4253
sI207
(dp4254
sI208
(dp4255
sI209
(dp4256
sI242
(dp4257
sI211
(dp4258
sI243
(dp4259
sI246
(dp4260
sI201
(dp4261
sI125
g3849
ssI166
(dp4262
I128
g3880
sI129
g3886
sI130
g3914
sI165
g4247
sI167
(dp4263
sI168
(dp4264
sI169
(dp4265
sI208
(dp4266
sI162
g4217
sI207
(dp4267
sI79
g3377
sI80
g3392
sI242
(dp4268
sI211
(dp4269
sI120
g3796
sI121
g3809
sI123
g3826
sI124
g3834
sI125
g3850
sI127
g3875
ssI167
(dp4270
I128
g3881
sI129
g3889
sI130
g3904
sI171
(dp4271
sI133
g3931
sI134
g3942
sI168
(dp4272
sI166
g4263
sI172
(dp4273
sI162
g4220
sI174
(dp4274
sI173
(dp4275
sI206
(dp4276
sI83
g3421
sI84
g3431
sI85
g3449
sI86
g3462
sI124
g3842
sI125
g3858
sI126
g3864
sI165
g4248
ssI168
(dp4277
I128
g3882
sI162
g4218
sI164
g4234
sI165
g4249
sI166
g4264
sI167
g4272
sI169
(dp4278
sI202
(dp4279
sI205
(dp4280
sI206
(dp4281
sI207
(dp4282
sI208
(dp4283
sI211
(dp4284
sI84
g3432
sI85
g3450
sI124
g3836
sI125
g3852
sI126
g3865
ssI169
(dp4285
I162
g4219
sI164
g4235
sI165
g4250
sI166
g4265
sI168
g4278
sI170
(dp4286
sI173
(dp4287
sI174
(dp4288
sI207
(dp4289
sI205
(dp4290
sI211
(dp4291
sI212
(dp4292
sI206
(dp4293
sI214
(dp4294
sI247
(dp4295
sI248
(dp4296
sI202
(dp4297
sI251
(dp4298
sI124
g3837
sI125
g3853
sI213
(dp4299
ssI170
(dp4300
I130
g3905
sI133
g3932
sI134
g3943
sI169
g4286
sI171
(dp4301
sI172
(dp4302
sI173
(dp4303
sI174
(dp4304
sI207
(dp4305
sI248
(dp4306
sI210
(dp4307
sI211
(dp4308
sI212
(dp4309
sI206
(dp4310
sI214
(dp4311
sI247
(dp4312
sI216
(dp4313
sI251
(dp4314
sI213
(dp4315
ssI171
(dp4316
I128
g3883
sI129
g3890
sI130
g3906
sI132
g3927
sI133
g3933
sI134
g3944
sI135
g3958
sI170
g4301
sI167
g4271
sI172
(dp4317
sI173
(dp4318
sI174
(dp4319
sI84
g3433
sI85
g3451
sI247
(dp4320
sI216
(dp4321
sI212
(dp4322
sI125
g3854
sI126
g3866
sI213
(dp4323
ssI172
(dp4324
I129
g3891
sI130
g3907
sI131
g3919
sI133
g3934
sI134
g3945
sI135
g3959
sI138
g3987
sI139
g3998
sI173
(dp4325
sI176
(dp4326
sI177
(dp4327
sI178
(dp4328
sI211
(dp4329
sI171
g4317
sI170
g4302
sI89
g3490
sI90
g3505
sI91
g3519
sI167
g4273
ssI173
(dp4330
I129
g3894
sI130
g3908
sI131
g3920
sI133
g3935
sI134
g3946
sI167
g4275
sI169
g4287
sI170
g4303
sI171
g4318
sI172
g4325
sI174
(dp4331
sI207
(dp4332
sI210
(dp4333
sI211
(dp4334
sI212
(dp4335
sI213
(dp4336
sI216
(dp4337
sI89
g3491
sI90
g3506
sI252
(dp4338
ssI174
(dp4339
I256
(dp4340
sI129
g3893
sI130
g3909
sI219
(dp4341
sI211
(dp4342
sI167
g4274
sI210
(dp4343
sI169
g4288
sI170
g4304
sI171
g4319
sI173
g4331
sI207
(dp4344
sI178
(dp4345
sI179
(dp4346
sI212
(dp4347
sI216
(dp4348
sI217
(dp4349
sI218
(dp4350
sI175
(dp4351
sI252
(dp4352
sI253
(dp4353
ssI175
(dp4354
I256
(dp4355
sI135
g3960
sI138
g3989
sI139
g4001
sI174
g4351
sI253
(dp4356
sI176
(dp4357
sI177
(dp4358
sI178
(dp4359
sI179
(dp4360
sI212
(dp4361
sI215
(dp4362
sI216
(dp4363
sI217
(dp4364
sI218
(dp4365
sI219
(dp4366
sI252
(dp4367
sI221
(dp4368
ssI176
(dp4369
I130
g3910
sI131
g3921
sI133
g3936
sI134
g3947
sI135
g3961
sI137
g3979
sI138
g3990
sI139
g3996
sI140
g4011
sI175
g4357
sI179
(dp4370
sI177
(dp4371
sI178
(dp4372
sI172
g4326
sI217
(dp4373
sI89
g3493
sI90
g3507
sI221
(dp4374
sI252
(dp4375
sI218
(dp4376
ssI177
(dp4377
I96
g3573
sI176
g4371
sI134
g3948
sI135
g3962
sI136
g3975
sI172
g4327
sI138
g3991
sI139
g4003
sI140
g4017
sI143
g4042
sI144
g4050
sI216
(dp4378
sI178
(dp4379
sI181
(dp4380
sI182
(dp4381
sI183
(dp4382
sI184
(dp4383
sI175
g4358
sI93
g3533
sI94
g3545
sI95
g3563
ssI178
(dp4384
I258
(dp4385
sI134
g3949
sI135
g3963
sI136
g3976
sI138
g3992
sI172
g4328
sI174
g4345
sI175
g4359
sI176
g4372
sI177
g4379
sI179
(dp4386
sI212
(dp4387
sI215
(dp4388
sI216
(dp4389
sI217
(dp4390
sI218
(dp4391
sI221
(dp4392
sI94
g3546
sI95
g3564
ssI179
(dp4393
I224
(dp4394
sI257
(dp4395
sI258
(dp4396
sI261
(dp4397
sI134
g3950
sI135
g3964
sI215
(dp4398
sI174
g4346
sI175
g4360
sI176
g4370
sI216
(dp4399
sI178
g4386
sI180
(dp4400
sI183
(dp4401
sI184
(dp4402
sI212
(dp4403
sI217
(dp4404
sI221
(dp4405
sI222
(dp4406
sI223
(dp4407
ssI180
(dp4408
I224
(dp4409
sI257
(dp4410
sI226
(dp4411
sI261
(dp4412
sI140
g4018
sI258
(dp4413
sI143
g4043
sI144
g4052
sI216
(dp4414
sI179
g4400
sI181
(dp4415
sI182
(dp4416
sI183
(dp4417
sI184
(dp4418
sI217
(dp4419
sI255
(dp4420
sI220
(dp4421
sI221
(dp4422
sI222
(dp4423
sI223
(dp4424
ssI181
(dp4425
I257
(dp4426
sI258
(dp4427
sI261
(dp4428
sI135
g3966
sI136
g3977
sI138
g3993
sI139
g4004
sI140
g4019
sI142
g4039
sI143
g4044
sI144
g4053
sI145
g4059
sI177
g4380
sI180
g4415
sI94
g3549
sI182
(dp4429
sI183
(dp4430
sI184
(dp4431
sI95
g3567
sI222
(dp4432
sI223
(dp4433
sI226
(dp4434
ssI182
(dp4435
I99
g3603
sI100
g3619
sI101
g3629
sI177
g4381
sI139
g4005
sI140
g4020
sI141
g4030
sI143
g4045
sI144
g4054
sI145
g4060
sI180
g4416
sI181
g4429
sI183
(dp4436
sI186
(dp4437
sI221
(dp4438
ssI183
(dp4439
I226
(dp4440
sI99
g3604
sI100
g3620
sI258
(dp4441
sI139
g4006
sI140
g4021
sI141
g4031
sI143
g4046
sI144
g4055
sI177
g4382
sI179
g4401
sI180
g4417
sI181
g4430
sI182
g4436
sI184
(dp4442
sI217
(dp4443
sI220
(dp4444
sI221
(dp4445
sI222
(dp4446
sI223
(dp4447
ssI184
(dp4448
I2
g2625
sI139
g4007
sI140
g4022
sI226
(dp4449
sI177
g4383
sI179
g4402
sI180
g4418
sI181
g4431
sI183
g4442
sI185
(dp4450
sI217
(dp4451
sI220
(dp4452
sI221
(dp4453
sI222
(dp4454
ssI185
(dp4455
I225
(dp4456
sI2
g2626
sI226
(dp4457
sI145
g4061
sI184
g4450
sI186
(dp4458
sI221
(dp4459
sI222
(dp4460
ssI186
(dp4461
I2
g2627
sI99
g3606
sI100
g3621
sI140
g4023
sI141
g4032
sI143
g4047
sI144
g4056
sI145
g4062
sI182
g4437
sI185
g4458
ssI187
(dp4462
I192
(dp4463
sI193
(dp4464
sI194
(dp4465
sI5
g2642
sI148
g4073
sI149
g4085
sI150
g4100
sI153
g4121
sI188
(dp4466
sI191
(dp4467
ssI188
(dp4468
I187
g4466
sI148
g4074
sI5
g2641
sI189
(dp4469
ssI189
(dp4470
I193
(dp4471
sI194
(dp4472
sI227
(dp4473
sI228
(dp4474
sI5
g2645
sI188
g4469
sI190
(dp4475
sI229
(dp4476
ssI190
(dp4477
I192
(dp4478
sI193
(dp4479
sI194
(dp4480
sI227
(dp4481
sI228
(dp4482
sI229
(dp4483
sI231
(dp4484
sI149
g4086
sI150
g4101
sI153
g4122
sI154
g4135
sI189
g4475
sI191
(dp4485
ssI191
(dp4486
I192
(dp4487
sI193
(dp4488
sI194
(dp4489
sI227
(dp4490
sI228
(dp4491
sI231
(dp4492
sI148
g4075
sI149
g4087
sI150
g4102
sI153
g4123
sI154
g4127
sI187
g4467
sI190
g4485
ssI192
(dp4493
I193
(dp4494
sI187
g4463
sI196
(dp4495
sI197
(dp4496
sI198
(dp4497
sI199
(dp4498
sI108
g3664
sI109
g3670
sI110
g3682
sI111
g3697
sI149
g4077
sI150
g4089
sI151
g4104
sI153
g4117
sI154
g4125
sI155
g4140
sI190
g4478
sI158
g4169
sI191
g4487
ssI193
(dp4499
I192
g4494
sI194
(dp4500
sI227
(dp4501
sI228
(dp4502
sI231
(dp4503
sI109
g3671
sI110
g3683
sI149
g4078
sI150
g4090
sI151
g4105
sI153
g4118
sI154
g4126
sI187
g4464
sI189
g4471
sI190
g4479
sI191
g4488
ssI194
(dp4504
I193
g4500
sI195
(dp4505
sI228
(dp4506
sI262
(dp4507
sI198
(dp4508
sI263
(dp4509
sI232
(dp4510
sI233
(dp4511
sI234
(dp4512
sI199
(dp4513
sI227
(dp4514
sI149
g4079
sI150
g4091
sI187
g4465
sI231
(dp4515
sI189
g4472
sI190
g4480
sI191
g4489
ssI195
(dp4516
I230
(dp4517
sI194
g4505
sI227
(dp4518
sI196
(dp4519
sI197
(dp4520
sI198
(dp4521
sI263
(dp4522
sI232
(dp4523
sI233
(dp4524
sI234
(dp4525
sI199
(dp4526
sI236
(dp4527
sI262
(dp4528
sI154
g4128
sI155
g4141
sI231
(dp4529
sI266
(dp4530
sI158
g4170
sI159
g4191
ssI196
(dp4531
I192
g4495
sI262
(dp4532
sI195
g4519
sI197
(dp4533
sI198
(dp4534
sI199
(dp4535
sI232
(dp4536
sI233
(dp4537
sI234
(dp4538
sI236
(dp4539
sI109
g3672
sI110
g3684
sI150
g4093
sI151
g4107
sI153
g4119
sI154
g4129
sI155
g4142
sI158
g4171
sI159
g4190
ssI197
(dp4540
I160
g4197
sI192
g4496
sI163
g4224
sI164
g4232
sI198
(dp4541
sI195
g4520
sI231
(dp4542
sI201
(dp4543
sI202
(dp4544
sI203
(dp4545
sI204
(dp4546
sI114
g3721
sI115
g3737
sI116
g3751
sI196
g4533
sI154
g4130
sI155
g4143
sI156
g4155
sI158
g4172
sI159
g4181
ssI198
(dp4547
I192
g4497
sI194
g4508
sI195
g4521
sI196
g4534
sI197
g4541
sI230
(dp4548
sI199
(dp4549
sI232
(dp4550
sI233
(dp4551
sI231
(dp4552
sI236
(dp4553
sI114
g3722
sI115
g3738
sI227
(dp4554
sI154
g4131
sI155
g4144
sI156
g4156
sI158
g4173
sI159
g4182
ssI199
(dp4555
I192
g4498
sI194
g4513
sI195
g4526
sI196
g4535
sI230
(dp4556
sI198
g4549
sI231
(dp4557
sI200
(dp4558
sI233
(dp4559
sI267
(dp4560
sI204
(dp4561
sI237
(dp4562
sI238
(dp4563
sI239
(dp4564
sI271
(dp4565
sI232
(dp4566
sI227
(dp4567
sI236
(dp4568
sI268
(dp4569
sI154
g4132
sI155
g4145
ssI200
(dp4570
I160
g4198
sI163
g4225
sI164
g4245
sI199
g4558
sI232
(dp4571
sI201
(dp4572
sI202
(dp4573
sI203
(dp4574
sI204
(dp4575
sI237
(dp4576
sI238
(dp4577
sI239
(dp4578
sI241
(dp4579
sI236
(dp4580
sI268
(dp4581
sI235
(dp4582
sI267
(dp4583
sI271
(dp4584
ssI201
(dp4585
I160
g4199
sI162
g4221
sI163
g4226
sI164
g4244
sI165
g4261
sI200
g4572
sI202
(dp4586
sI197
g4543
sI204
(dp4587
sI237
(dp4588
sI238
(dp4589
sI241
(dp4590
sI114
g3723
sI115
g3739
sI203
(dp4591
sI267
(dp4592
sI155
g4147
sI156
g4158
sI158
g4174
sI159
g4183
ssI202
(dp4593
I160
g4200
sI161
g4214
sI197
g4544
sI163
g4227
sI164
g4236
sI165
g4251
sI168
g4279
sI169
g4297
sI203
(dp4594
sI236
(dp4595
sI206
(dp4596
sI207
(dp4597
sI208
(dp4598
sI200
g4573
sI119
g3784
sI120
g3798
sI121
g3810
sI201
g4586
sI159
g4184
ssI203
(dp4599
I160
g4201
sI161
g4211
sI163
g4228
sI197
g4545
sI200
g4574
sI201
g4591
sI202
g4594
sI235
(dp4600
sI204
(dp4601
sI237
(dp4602
sI238
(dp4603
sI272
(dp4604
sI241
(dp4605
sI236
(dp4606
sI119
g3785
sI120
g3799
sI232
(dp4607
sI159
g4185
ssI204
(dp4608
I272
(dp4609
sI273
(dp4610
sI276
(dp4611
sI159
g4186
sI160
g4202
sI197
g4546
sI199
g4561
sI200
g4575
sI201
g4587
sI203
g4601
sI205
(dp4612
sI208
(dp4613
sI209
(dp4614
sI232
(dp4615
sI235
(dp4616
sI236
(dp4617
sI237
(dp4618
sI240
(dp4619
sI241
(dp4620
sI242
(dp4621
sI243
(dp4622
sI244
(dp4623
ssI205
(dp4624
I240
(dp4625
sI165
g4252
sI241
(dp4626
sI168
g4280
sI169
g4290
sI204
g4612
sI237
(dp4627
sI206
(dp4628
sI207
(dp4629
sI272
(dp4630
sI209
(dp4631
sI242
(dp4632
sI243
(dp4633
sI244
(dp4634
sI236
(dp4635
sI246
(dp4636
sI276
(dp4637
sI208
(dp4638
sI273
(dp4639
ssI206
(dp4640
I160
g4204
sI161
g4213
sI163
g4229
sI164
g4237
sI165
g4253
sI167
g4276
sI168
g4281
sI169
g4293
sI170
g4310
sI205
g4628
sI272
(dp4641
sI207
(dp4642
sI208
(dp4643
sI209
(dp4644
sI242
(dp4645
sI243
(dp4646
sI246
(dp4647
sI119
g3786
sI120
g3800
sI202
g4596
ssI207
(dp4648
I164
g4238
sI165
g4254
sI166
g4267
sI168
g4282
sI169
g4289
sI170
g4305
sI173
g4332
sI174
g4344
sI205
g4629
sI208
(dp4649
sI241
(dp4650
sI211
(dp4651
sI212
(dp4652
sI206
g4642
sI214
(dp4653
sI202
g4597
sI123
g3827
sI124
g3840
sI125
g3855
sI126
g3867
sI213
(dp4654
ssI208
(dp4655
I164
g4239
sI165
g4255
sI166
g4266
sI241
(dp4656
sI168
g4283
sI202
g4598
sI204
g4613
sI205
g4638
sI206
g4643
sI207
g4649
sI240
(dp4657
sI209
(dp4658
sI242
(dp4659
sI237
(dp4660
sI243
(dp4661
sI246
(dp4662
sI124
g3839
sI125
g3856
sI277
(dp4663
ssI209
(dp4664
I240
(dp4665
sI278
(dp4666
sI164
g4240
sI165
g4256
sI246
(dp4667
sI242
(dp4668
sI204
g4614
sI205
g4631
sI206
g4644
sI237
(dp4669
sI208
g4658
sI241
(dp4670
sI210
(dp4671
sI243
(dp4672
sI213
(dp4673
sI214
(dp4674
sI247
(dp4675
sI248
(dp4676
sI249
(dp4677
sI281
(dp4678
sI277
(dp4679
ssI210
(dp4680
I278
(dp4681
sI246
(dp4682
sI241
(dp4683
sI170
g4307
sI213
(dp4684
sI173
g4333
sI174
g4343
sI209
g4671
sI242
(dp4685
sI211
(dp4686
sI212
(dp4687
sI245
(dp4688
sI214
(dp4689
sI247
(dp4690
sI248
(dp4691
sI249
(dp4692
sI251
(dp4693
sI281
(dp4694
sI277
(dp4695
ssI211
(dp4696
I165
g4258
sI166
g4269
sI168
g4284
sI169
g4291
sI170
g4308
sI172
g4329
sI173
g4334
sI174
g4342
sI207
g4651
sI210
g4686
sI212
(dp4697
sI213
(dp4698
sI214
(dp4699
sI247
(dp4700
sI248
(dp4701
sI251
(dp4702
sI124
g3843
sI125
g3857
sI277
(dp4703
ssI212
(dp4704
I129
g3897
sI130
g3911
sI131
g3922
sI246
(dp4705
sI211
g4697
sI210
g4687
sI169
g4292
sI170
g4309
sI171
g4322
sI173
g4335
sI174
g4347
sI175
g4361
sI178
g4387
sI179
g4403
sI213
(dp4706
sI219
(dp4707
sI216
(dp4708
sI217
(dp4709
sI218
(dp4710
sI207
g4652
ssI213
(dp4711
I129
g3895
sI130
g3912
sI246
(dp4712
sI169
g4299
sI170
g4315
sI171
g4323
sI173
g4336
sI242
(dp4713
sI207
g4654
sI209
g4673
sI210
g4684
sI211
g4698
sI212
g4706
sI245
(dp4714
sI214
(dp4715
sI247
(dp4716
sI248
(dp4717
sI282
(dp4718
sI251
(dp4719
ssI214
(dp4720
I219
(dp4721
sI286
(dp4722
sI169
g4294
sI170
g4311
sI247
(dp4723
sI242
(dp4724
sI207
g4653
sI209
g4674
sI210
g4689
sI211
g4699
sI251
(dp4725
sI213
g4715
sI246
(dp4726
sI215
(dp4727
sI218
(dp4728
sI282
(dp4729
sI283
(dp4730
sI252
(dp4731
sI253
(dp4732
sI254
(dp4733
sI245
(dp4734
ssI215
(dp4735
I256
(dp4736
sI253
(dp4737
sI219
(dp4738
sI246
(dp4739
sI175
g4362
sI282
(dp4740
sI178
g4388
sI179
g4398
sI251
(dp4741
sI286
(dp4742
sI214
g4727
sI247
(dp4743
sI216
(dp4744
sI217
(dp4745
sI250
(dp4746
sI283
(dp4747
sI252
(dp4748
sI218
(dp4749
sI254
(dp4750
ssI216
(dp4751
I256
(dp4752
sI129
g3896
sI130
g3913
sI282
(dp4753
sI253
(dp4754
sI170
g4313
sI171
g4321
sI173
g4337
sI174
g4348
sI175
g4363
sI177
g4378
sI178
g4389
sI179
g4399
sI180
g4414
sI215
g4744
sI212
g4708
sI217
(dp4755
sI219
(dp4756
sI252
(dp4757
sI218
(dp4758
ssI217
(dp4759
I224
(dp4760
sI133
g3937
sI134
g3951
sI135
g3967
sI136
g3974
sI215
g4745
sI174
g4349
sI175
g4364
sI176
g4373
sI216
g4755
sI178
g4390
sI179
g4404
sI180
g4419
sI183
g4443
sI184
g4451
sI212
g4709
sI218
(dp4761
sI251
(dp4762
sI221
(dp4763
sI222
(dp4764
sI223
(dp4765
ssI218
(dp4766
I256
(dp4767
sI251
(dp4768
sI134
g3952
sI135
g3968
sI138
g3994
sI247
(dp4769
sI174
g4350
sI175
g4365
sI176
g4376
sI178
g4391
sI212
g4710
sI214
g4728
sI215
g4749
sI216
g4758
sI217
g4761
sI250
(dp4770
sI219
(dp4771
sI252
(dp4772
sI253
(dp4773
sI287
(dp4774
ssI219
(dp4775
I256
(dp4776
sI257
(dp4777
sI258
(dp4778
sI259
(dp4779
sI287
(dp4780
sI288
(dp4781
sI291
(dp4782
sI174
g4341
sI175
g4366
sI212
g4707
sI214
g4721
sI215
g4738
sI216
g4756
sI218
g4771
sI220
(dp4783
sI223
(dp4784
sI224
(dp4785
sI247
(dp4786
sI250
(dp4787
sI251
(dp4788
sI252
(dp4789
sI253
(dp4790
ssI220
(dp4791
I224
(dp4792
sI256
(dp4793
sI258
(dp4794
sI251
(dp4795
sI261
(dp4796
sI257
(dp4797
sI291
(dp4798
sI255
(dp4799
sI288
(dp4800
sI287
(dp4801
sI259
(dp4802
sI180
g4421
sI183
g4444
sI184
g4452
sI219
g4783
sI252
(dp4803
sI221
(dp4804
sI222
(dp4805
sI223
(dp4806
ssI221
(dp4807
I224
(dp4808
sI257
(dp4809
sI258
(dp4810
sI259
(dp4811
sI261
(dp4812
sI134
g3953
sI135
g3969
sI175
g4368
sI176
g4374
sI178
g4392
sI179
g4405
sI180
g4422
sI182
g4438
sI183
g4445
sI184
g4453
sI185
g4459
sI217
g4763
sI287
(dp4813
sI220
g4804
sI222
(dp4814
sI223
(dp4815
ssI222
(dp4816
I256
(dp4817
sI2
g2628
sI226
(dp4818
sI139
g4009
sI140
g4024
sI141
g4034
sI179
g4406
sI180
g4423
sI181
g4432
sI183
g4446
sI184
g4454
sI185
g4460
sI217
g4764
sI220
g4805
sI221
g4814
sI223
(dp4819
ssI223
(dp4820
I256
(dp4821
sI257
(dp4822
sI258
(dp4823
sI261
(dp4824
sI138
g3988
sI139
g4000
sI140
g4025
sI141
g4035
sI143
g4048
sI287
(dp4825
sI179
g4407
sI180
g4424
sI181
g4433
sI183
g4447
sI217
g4765
sI219
g4784
sI220
g4806
sI221
g4815
sI222
g4819
sI224
(dp4826
sI252
(dp4827
sI255
(dp4828
ssI224
(dp4829
I256
(dp4830
sI225
(dp4831
sI261
(dp4832
sI257
(dp4833
sI252
(dp4834
sI255
(dp4835
sI179
g4394
sI180
g4409
sI217
g4760
sI219
g4785
sI220
g4792
sI221
g4808
sI223
g4826
ssI225
(dp4836
I224
g4831
sI256
(dp4837
sI2
g2620
sI260
(dp4838
sI261
(dp4839
sI257
(dp4840
sI226
(dp4841
sI185
g4456
ssI226
(dp4842
I225
g4841
sI2
g2621
sI139
g3997
sI140
g4012
sI141
g4033
sI180
g4411
sI181
g4434
sI183
g4440
sI184
g4449
sI185
g4457
sI222
g4818
ssI227
(dp4843
I193
g4501
sI194
g4514
sI195
g4518
sI228
(dp4844
sI198
g4554
sI199
g4567
sI232
(dp4845
sI233
(dp4846
sI234
(dp4847
sI231
(dp4848
sI148
g4071
sI149
g4080
sI150
g4092
sI151
g4106
sI189
g4473
sI190
g4481
sI191
g4490
ssI228
(dp4849
I193
g4502
sI194
g4506
sI227
g4844
sI229
(dp4850
sI149
g4081
sI150
g4098
sI189
g4474
sI190
g4482
sI191
g4491
ssI229
(dp4851
I228
g4850
sI262
(dp4852
sI230
(dp4853
sI263
(dp4854
sI264
(dp4855
sI233
(dp4856
sI234
(dp4857
sI266
(dp4858
sI189
g4476
sI190
g4483
ssI230
(dp4859
I198
g4548
sI195
g4517
sI229
g4853
sI262
(dp4860
sI263
(dp4861
sI232
(dp4862
sI233
(dp4863
sI234
(dp4864
sI199
g4556
sI264
(dp4865
sI266
(dp4866
sI231
(dp4867
ssI231
(dp4868
I193
g4503
sI194
g4515
sI195
g4529
sI197
g4542
sI198
g4552
sI199
g4557
sI232
(dp4869
sI233
(dp4870
sI234
(dp4871
sI263
(dp4872
sI227
g4848
sI149
g4082
sI150
g4094
sI262
(dp4873
sI230
g4867
sI266
(dp4874
sI190
g4484
sI191
g4492
ssI232
(dp4875
I194
g4510
sI195
g4523
sI196
g4536
sI230
g4862
sI198
g4550
sI199
g4566
sI200
g4571
sI233
(dp4876
sI203
g4607
sI204
g4615
sI237
(dp4877
sI238
(dp4878
sI239
(dp4879
sI227
g4845
sI236
(dp4880
sI154
g4133
sI155
g4146
sI156
g4157
sI231
g4869
ssI233
(dp4881
I263
(dp4882
sI230
g4863
sI194
g4511
sI195
g4524
sI196
g4537
sI229
g4856
sI198
g4551
sI199
g4559
sI232
g4876
sI234
(dp4883
sI231
g4870
sI227
g4846
sI262
(dp4884
sI292
(dp4885
sI154
g4134
sI155
g4149
sI266
(dp4886
ssI234
(dp4887
I194
g4512
sI195
g4525
sI196
g4538
sI229
g4857
sI230
g4864
sI231
g4871
sI296
(dp4888
sI233
g4883
sI266
(dp4889
sI263
(dp4890
sI268
(dp4891
sI269
(dp4892
sI239
(dp4893
sI227
g4847
sI235
(dp4894
sI262
(dp4895
sI292
(dp4896
sI267
(dp4897
sI293
(dp4898
ssI235
(dp4899
I267
(dp4900
sI292
(dp4901
sI293
(dp4902
sI262
(dp4903
sI200
g4582
sI236
(dp4904
sI234
g4894
sI203
g4600
sI204
g4616
sI237
(dp4905
sI238
(dp4906
sI239
(dp4907
sI296
(dp4908
sI269
(dp4909
sI268
(dp4910
sI265
(dp4911
sI271
(dp4912
sI266
(dp4913
ssI236
(dp4914
I195
g4527
sI196
g4539
sI198
g4553
sI199
g4568
sI200
g4580
sI268
(dp4915
sI202
g4595
sI203
g4606
sI204
g4617
sI205
g4635
sI238
(dp4916
sI237
(dp4917
sI271
(dp4918
sI232
g4880
sI235
g4904
sI267
(dp4919
sI292
(dp4920
sI155
g4148
sI239
(dp4921
ssI237
(dp4922
I160
g4203
sI161
g4212
sI235
g4905
sI199
g4562
sI200
g4576
sI201
g4588
sI266
(dp4923
sI203
g4602
sI204
g4618
sI205
g4627
sI238
(dp4924
sI208
g4660
sI209
g4669
sI242
(dp4925
sI243
(dp4926
sI244
(dp4927
sI236
g4917
sI241
(dp4928
sI232
g4877
sI158
g4175
sI159
g4187
ssI238
(dp4929
I160
g4206
sI235
g4906
sI262
(dp4930
sI199
g4563
sI200
g4577
sI201
g4589
sI266
(dp4931
sI203
g4603
sI236
g4916
sI237
g4924
sI239
(dp4932
sI232
g4878
sI268
(dp4933
sI265
(dp4934
sI267
(dp4935
sI271
(dp4936
sI159
g4188
ssI239
(dp4937
I272
(dp4938
sI267
(dp4939
sI273
(dp4940
sI262
(dp4941
sI199
g4564
sI200
g4578
sI265
(dp4942
sI234
g4893
sI235
g4907
sI236
g4921
sI301
(dp4943
sI238
g4932
sI271
(dp4944
sI240
(dp4945
sI232
g4879
sI274
(dp4946
sI244
(dp4947
sI268
(dp4948
sI297
(dp4949
sI298
(dp4950
sI266
(dp4951
ssI240
(dp4952
I272
(dp4953
sI243
(dp4954
sI241
(dp4955
sI297
(dp4956
sI298
(dp4957
sI267
(dp4958
sI204
g4619
sI205
g4625
sI270
(dp4959
sI239
g4945
sI208
g4657
sI209
g4665
sI242
(dp4960
sI274
(dp4961
sI244
(dp4962
sI301
(dp4963
sI276
(dp4964
sI266
(dp4965
sI271
(dp4966
sI273
(dp4967
ssI241
(dp4968
I160
g4205
sI240
g4955
sI272
(dp4969
sI243
(dp4970
sI200
g4579
sI201
g4590
sI203
g4605
sI204
g4620
sI205
g4626
sI242
(dp4971
sI207
g4650
sI208
g4656
sI209
g4670
sI210
g4683
sI237
g4928
sI244
(dp4972
sI297
(dp4973
sI276
(dp4974
sI273
(dp4975
sI159
g4189
ssI242
(dp4976
I240
g4960
sI163
g4230
sI164
g4241
sI165
g4257
sI166
g4268
sI241
g4971
sI204
g4621
sI205
g4632
sI206
g4645
sI237
g4925
sI208
g4659
sI209
g4668
sI210
g4685
sI243
(dp4977
sI213
g4713
sI214
g4724
sI247
(dp4978
sI248
(dp4979
sI249
(dp4980
sI271
(dp4981
sI246
(dp4982
ssI243
(dp4983
I240
g4954
sI164
g4242
sI165
g4259
sI241
g4970
sI270
(dp4984
sI267
(dp4985
sI204
g4622
sI205
g4633
sI206
g4646
sI237
g4926
sI208
g4661
sI209
g4672
sI242
g4977
sI244
(dp4986
sI272
(dp4987
sI276
(dp4988
sI271
(dp4989
sI273
(dp4990
ssI244
(dp4991
I267
(dp4992
sI270
(dp4993
sI271
(dp4994
sI272
(dp4995
sI273
(dp4996
sI276
(dp4997
sI277
(dp4998
sI278
(dp4999
sI279
(dp5000
sI302
(dp5001
sI303
(dp5002
sI306
(dp5003
sI204
g4623
sI205
g4634
sI237
g4927
sI239
g4947
sI240
g4962
sI241
g4972
sI243
g4986
sI245
(dp5004
sI248
(dp5005
sI249
(dp5006
ssI245
(dp5007
I278
(dp5008
sI214
g4734
sI249
(dp5009
sI279
(dp5010
sI306
(dp5011
sI302
(dp5012
sI271
(dp5013
sI272
(dp5014
sI210
g4688
sI275
(dp5015
sI244
g5004
sI213
g4714
sI246
(dp5016
sI247
(dp5017
sI248
(dp5018
sI276
(dp5019
sI303
(dp5020
sI281
(dp5021
sI277
(dp5022
ssI246
(dp5023
I278
(dp5024
sI164
g4243
sI165
g4260
sI242
g4982
sI277
(dp5025
sI247
(dp5026
sI205
g4636
sI206
g4647
sI208
g4662
sI209
g4667
sI210
g4682
sI302
(dp5027
sI212
g4705
sI213
g4712
sI214
g4726
sI215
g4739
sI248
(dp5028
sI249
(dp5029
sI281
(dp5030
sI245
g5016
ssI247
(dp5031
I251
(dp5032
sI246
g5026
sI169
g4295
sI170
g4312
sI171
g4320
sI242
g4978
sI209
g4675
sI210
g4690
sI211
g4700
sI276
(dp5033
sI213
g4716
sI214
g4723
sI215
g4743
sI248
(dp5034
sI218
g4769
sI219
g4786
sI252
(dp5035
sI253
(dp5036
sI254
(dp5037
sI245
g5017
ssI248
(dp5038
I277
(dp5039
sI278
(dp5040
sI275
(dp5041
sI169
g4296
sI170
g4306
sI242
g4979
sI272
(dp5042
sI209
g4676
sI210
g4691
sI211
g4701
sI244
g5005
sI213
g4717
sI246
g5028
sI247
g5034
sI276
(dp5043
sI249
(dp5044
sI281
(dp5045
sI245
g5018
ssI249
(dp5046
I278
(dp5047
sI242
g4980
sI254
(dp5048
sI272
(dp5049
sI209
g4677
sI210
g4692
sI275
(dp5050
sI244
g5006
sI245
g5009
sI246
g5029
sI281
(dp5051
sI248
g5044
sI276
(dp5052
sI282
(dp5053
sI283
(dp5054
sI284
(dp5055
sI253
(dp5056
sI250
(dp5057
sI277
(dp5058
ssI250
(dp5059
I251
(dp5060
sI283
(dp5061
sI284
(dp5062
sI215
g4746
sI282
(dp5063
sI286
(dp5064
sI276
(dp5065
sI277
(dp5066
sI281
(dp5067
sI280
(dp5068
sI249
g5057
sI218
g4770
sI219
g4787
sI252
(dp5069
sI253
(dp5070
sI254
(dp5071
ssI251
(dp5072
I252
(dp5073
sI282
(dp5074
sI286
(dp5075
sI169
g4298
sI170
g4314
sI247
g5032
sI253
(dp5076
sI210
g4693
sI211
g4702
sI213
g4719
sI214
g4725
sI215
g4741
sI283
(dp5077
sI217
g4762
sI218
g4768
sI219
g4788
sI220
g4795
sI250
g5060
sI254
(dp5078
ssI252
(dp5079
I224
g4834
sI256
(dp5080
sI258
(dp5081
sI251
g5073
sI257
(dp5082
sI259
(dp5083
sI247
g5035
sI173
g4338
sI174
g4352
sI175
g4367
sI176
g4375
sI253
(dp5084
sI214
g4731
sI215
g4748
sI216
g4757
sI281
(dp5085
sI218
g4772
sI219
g4789
sI220
g4803
sI250
g5069
sI223
g4827
ssI253
(dp5086
I251
g5076
sI247
g5036
sI281
(dp5087
sI174
g4353
sI175
g4356
sI282
(dp5088
sI280
(dp5089
sI286
(dp5090
sI283
(dp5091
sI277
(dp5092
sI214
g4732
sI215
g4737
sI216
g4754
sI249
g5056
sI218
g4773
sI219
g4790
sI252
g5084
sI250
g5070
sI254
(dp5093
ssI254
(dp5094
I288
(dp5095
sI289
(dp5096
sI259
(dp5097
sI215
g4750
sI287
(dp5098
sI282
(dp5099
sI280
(dp5100
sI277
(dp5101
sI214
g4733
sI247
g5037
sI283
(dp5102
sI249
g5048
sI250
g5071
sI251
g5078
sI281
(dp5103
sI253
g5093
sI286
(dp5104
sI255
(dp5105
ssI255
(dp5106
I224
g4835
sI256
(dp5107
sI258
(dp5108
sI259
(dp5109
sI257
(dp5110
sI289
(dp5111
sI288
(dp5112
sI291
(dp5113
sI180
g4420
sI286
(dp5114
sI281
(dp5115
sI282
(dp5116
sI287
(dp5117
sI220
g4799
sI285
(dp5118
sI254
g5105
sI223
g4828
ssI256
(dp5119
I224
g4830
sI225
g4837
sI258
(dp5120
sI259
(dp5121
sI257
(dp5122
sI252
g5080
sI255
g5107
sI174
g4340
sI175
g4355
sI287
(dp5123
sI291
(dp5124
sI215
g4736
sI216
g4752
sI218
g4767
sI219
g4776
sI220
g4793
sI288
(dp5125
sI222
g4817
sI223
g4821
ssI257
(dp5126
I224
g4833
sI225
g4840
sI258
(dp5127
sI261
(dp5128
sI252
g5082
sI256
g5122
sI255
g5110
sI179
g4395
sI180
g4410
sI181
g4426
sI219
g4777
sI220
g4797
sI221
g4809
sI286
(dp5129
sI223
g4822
ssI258
(dp5130
I256
g5120
sI257
g5127
sI259
(dp5131
sI285
(dp5132
sI252
g5081
sI288
(dp5133
sI291
(dp5134
sI255
g5108
sI287
(dp5135
sI178
g4385
sI179
g4396
sI180
g4413
sI181
g4427
sI183
g4441
sI282
(dp5136
sI219
g4778
sI220
g4794
sI221
g4810
sI286
(dp5137
sI223
g4823
ssI259
(dp5138
I256
g5121
sI258
g5131
sI291
(dp5139
sI260
(dp5140
sI220
g4802
sI290
(dp5141
sI285
(dp5142
sI287
(dp5143
sI286
(dp5144
sI282
(dp5145
sI219
g4779
sI252
g5083
sI221
g4811
sI254
g5097
sI255
g5109
ssI260
(dp5146
I225
g4838
sI290
(dp5147
sI259
g5140
sI261
(dp5148
sI291
(dp5149
sI287
(dp5150
ssI261
(dp5151
I224
g4832
sI225
g4839
sI260
g5148
sI257
g5128
sI179
g4397
sI180
g4412
sI181
g4428
sI220
g4796
sI221
g4812
sI223
g4824
ssI262
(dp5152
I263
(dp5153
sI194
g4507
sI195
g4528
sI196
g4532
sI229
g4852
sI230
g4860
sI231
g4873
sI233
g4884
sI234
g4895
sI235
g4903
sI268
(dp5154
sI269
(dp5155
sI238
g4930
sI239
g4941
sI267
(dp5156
sI266
(dp5157
ssI263
(dp5158
I194
g4509
sI195
g4522
sI229
g4854
sI230
g4861
sI231
g4872
sI264
(dp5159
sI233
g4882
sI234
g4890
sI262
g5153
ssI264
(dp5160
I230
g4865
sI292
(dp5161
sI229
g4855
sI294
(dp5162
sI263
g5159
sI265
(dp5163
sI269
(dp5164
sI293
(dp5165
ssI265
(dp5166
I235
g4911
sI292
(dp5167
sI293
(dp5168
sI294
(dp5169
sI264
g5163
sI266
(dp5170
sI267
(dp5171
sI268
(dp5172
sI269
(dp5173
sI238
g4934
sI239
g4942
sI296
(dp5174
ssI266
(dp5175
I262
g5157
sI195
g4530
sI292
(dp5176
sI229
g4858
sI230
g4866
sI231
g4874
sI296
(dp5177
sI233
g4886
sI234
g4889
sI235
g4913
sI268
(dp5178
sI237
g4923
sI238
g4931
sI239
g4951
sI240
g4965
sI269
(dp5179
sI265
g5170
sI267
(dp5180
sI293
(dp5181
ssI267
(dp5182
I272
(dp5183
sI262
g5156
sI199
g4560
sI200
g4583
sI201
g4592
sI234
g4897
sI235
g4900
sI236
g4919
sI238
g4935
sI239
g4939
sI240
g4958
sI273
(dp5184
sI274
(dp5185
sI243
g4985
sI244
g4992
sI268
(dp5186
sI265
g5171
sI271
(dp5187
sI266
g5180
ssI268
(dp5188
I267
g5186
sI292
(dp5189
sI293
(dp5190
sI262
g5154
sI199
g4569
sI200
g4581
sI265
g5172
sI234
g4891
sI235
g4910
sI236
g4915
sI269
(dp5191
sI238
g4933
sI239
g4948
sI296
(dp5192
sI266
g5178
ssI269
(dp5193
I299
(dp5194
sI292
(dp5195
sI262
g5155
sI264
g5164
sI265
g5173
sI234
g4892
sI235
g4909
sI268
g5191
sI270
(dp5196
sI296
(dp5197
sI274
(dp5198
sI297
(dp5199
sI298
(dp5200
sI266
g5179
ssI270
(dp5201
I272
(dp5202
sI292
(dp5203
sI295
(dp5204
sI296
(dp5205
sI297
(dp5206
sI298
(dp5207
sI299
(dp5208
sI269
g5196
sI271
(dp5209
sI240
g4959
sI273
(dp5210
sI274
(dp5211
sI243
g4984
sI244
g4993
sI301
(dp5212
ssI271
(dp5213
I301
(dp5214
sI272
(dp5215
sI267
g5187
sI199
g4565
sI200
g4584
sI297
(dp5216
sI298
(dp5217
sI235
g4912
sI236
g4918
sI274
(dp5218
sI238
g4936
sI239
g4944
sI240
g4966
sI273
(dp5219
sI242
g4981
sI243
g4989
sI244
g4994
sI245
g5013
sI270
g5209
ssI272
(dp5220
I267
g5183
sI276
(dp5221
sI273
(dp5222
sI296
(dp5223
sI203
g4604
sI204
g4609
sI205
g4630
sI206
g4641
sI239
g4938
sI240
g4953
sI241
g4969
sI270
g5202
sI243
g4987
sI244
g4995
sI245
g5014
sI278
(dp5224
sI279
(dp5225
sI248
g5042
sI249
g5049
sI271
g5215
sI277
(dp5226
ssI273
(dp5227
I272
g5222
sI292
(dp5228
sI295
(dp5229
sI296
(dp5230
sI297
(dp5231
sI298
(dp5232
sI267
g5184
sI204
g4610
sI205
g4639
sI270
g5210
sI239
g4940
sI240
g4967
sI241
g4975
sI274
(dp5233
sI243
g4990
sI244
g4996
sI301
(dp5234
sI271
g5219
ssI274
(dp5235
I302
(dp5236
sI304
(dp5237
sI292
(dp5238
sI295
(dp5239
sI296
(dp5240
sI297
(dp5241
sI298
(dp5242
sI267
g5185
sI269
g5198
sI270
g5211
sI271
g5218
sI240
g4961
sI273
g5233
sI275
(dp5243
sI301
(dp5244
sI303
(dp5245
sI279
(dp5246
sI239
g4946
ssI275
(dp5247
I296
(dp5248
sI297
(dp5249
sI300
(dp5250
sI306
(dp5251
sI302
(dp5252
sI301
(dp5253
sI304
(dp5254
sI274
g5243
sI276
(dp5255
sI245
g5015
sI278
(dp5256
sI279
(dp5257
sI248
g5041
sI249
g5050
sI303
(dp5258
sI277
(dp5259
ssI276
(dp5260
I272
g5221
sI275
g5255
sI279
(dp5261
sI204
g4611
sI205
g4637
sI302
(dp5262
sI303
(dp5263
sI240
g4964
sI241
g4974
sI306
(dp5264
sI243
g4988
sI244
g4997
sI245
g5019
sI278
(dp5265
sI247
g5033
sI248
g5043
sI249
g5052
sI250
g5065
sI277
(dp5266
ssI277
(dp5267
I272
g5226
sI282
(dp5268
sI278
(dp5269
sI276
g5266
sI275
g5259
sI301
(dp5270
sI208
g4663
sI209
g4679
sI210
g4695
sI211
g4703
sI244
g4998
sI245
g5022
sI246
g5025
sI281
(dp5271
sI248
g5039
sI249
g5058
sI250
g5066
sI283
(dp5272
sI284
(dp5273
sI253
g5092
sI254
g5101
ssI278
(dp5274
I276
g5265
sI297
(dp5275
sI300
(dp5276
sI306
(dp5277
sI302
(dp5278
sI301
(dp5279
sI272
g5224
sI209
g4666
sI210
g4681
sI275
g5256
sI244
g4999
sI245
g5008
sI246
g5024
sI279
(dp5280
sI248
g5040
sI249
g5047
sI303
(dp5281
sI277
g5269
ssI279
(dp5282
I297
(dp5283
sI300
(dp5284
sI306
(dp5285
sI302
(dp5286
sI301
(dp5287
sI272
g5225
sI274
g5246
sI275
g5257
sI276
g5261
sI245
g5010
sI278
g5280
sI280
(dp5288
sI244
g5000
sI303
(dp5289
sI284
(dp5290
ssI280
(dp5291
I301
(dp5292
sI302
(dp5293
sI253
g5089
sI305
(dp5294
sI306
(dp5295
sI279
g5288
sI281
(dp5296
sI250
g5068
sI283
(dp5297
sI284
(dp5298
sI282
(dp5299
sI254
g5100
ssI281
(dp5300
I282
(dp5301
sI277
g5271
sI284
(dp5302
sI209
g4678
sI210
g4694
sI245
g5021
sI246
g5030
sI280
g5296
sI248
g5045
sI249
g5051
sI250
g5067
sI283
(dp5303
sI252
g5085
sI253
g5087
sI254
g5103
sI255
g5115
ssI282
(dp5304
I288
(dp5305
sI289
(dp5306
sI258
g5136
sI259
g5145
sI277
g5268
sI306
(dp5307
sI287
(dp5308
sI280
g5299
sI286
(dp5309
sI283
(dp5310
sI213
g4718
sI214
g4729
sI215
g4740
sI216
g4753
sI249
g5053
sI250
g5063
sI251
g5074
sI281
g5301
sI253
g5088
sI254
g5099
sI255
g5116
ssI283
(dp5311
I282
g5310
sI284
(dp5312
sI302
(dp5313
sI305
(dp5314
sI306
(dp5315
sI277
g5272
sI214
g4730
sI215
g4747
sI280
g5297
sI249
g5054
sI250
g5061
sI251
g5077
sI281
g5303
sI253
g5091
sI254
g5102
ssI284
(dp5316
I289
(dp5317
sI3
g2633
sI302
(dp5318
sI305
(dp5319
sI306
(dp5320
sI277
g5273
sI279
g5290
sI280
g5298
sI249
g5055
sI250
g5062
sI283
g5312
sI281
g5302
sI285
(dp5321
ssI285
(dp5322
I288
(dp5323
sI289
(dp5324
sI258
g5132
sI259
g5142
sI306
(dp5325
sI3
g2634
sI287
(dp5326
sI284
g5321
sI286
(dp5327
sI255
g5118
ssI286
(dp5328
I288
(dp5329
sI257
g5129
sI258
g5137
sI3
g2635
sI289
(dp5330
sI285
g5327
sI282
g5309
sI287
(dp5331
sI259
g5144
sI214
g4722
sI215
g4742
sI250
g5064
sI251
g5075
sI253
g5090
sI254
g5104
sI255
g5114
ssI287
(dp5332
I256
g5123
sI288
(dp5333
sI258
g5135
sI259
g5143
sI260
g5150
sI255
g5117
sI282
g5308
sI291
(dp5334
sI285
g5326
sI286
g5331
sI218
g4774
sI219
g4780
sI220
g4801
sI221
g4813
sI254
g5098
sI223
g4825
ssI288
(dp5335
I256
g5125
sI289
(dp5336
sI258
g5133
sI3
g2630
sI287
g5333
sI286
g5329
sI282
g5305
sI219
g4781
sI220
g4800
sI285
g5323
sI254
g5095
sI255
g5112
ssI289
(dp5337
I288
g5336
sI290
(dp5338
sI3
g2631
sI286
g5330
sI282
g5306
sI284
g5317
sI285
g5324
sI254
g5096
sI255
g5111
ssI290
(dp5339
I259
g5141
sI289
g5338
sI3
g2632
sI260
g5147
sI291
(dp5340
ssI291
(dp5341
I256
g5124
sI258
g5134
sI259
g5139
sI260
g5149
sI290
g5340
sI287
g5334
sI219
g4782
sI220
g4798
sI255
g5113
ssI292
(dp5342
I299
(dp5343
sI293
(dp5344
sI298
(dp5345
sI264
g5161
sI233
g4885
sI234
g4896
sI235
g4901
sI236
g4920
sI269
g5195
sI270
g5203
sI273
g5228
sI274
g5238
sI268
g5189
sI265
g5167
sI297
(dp5346
sI266
g5176
sI296
(dp5347
ssI293
(dp5348
I4
g2637
sI294
(dp5349
sI264
g5165
sI265
g5168
sI234
g4898
sI235
g4902
sI268
g5190
sI292
g5344
sI266
g5181
ssI294
(dp5350
I4
g2638
sI293
g5349
sI295
(dp5351
sI264
g5162
sI265
g5169
sI299
(dp5352
ssI295
(dp5353
I4
g2639
sI294
g5351
sI296
(dp5354
sI297
(dp5355
sI298
(dp5356
sI299
(dp5357
sI270
g5204
sI273
g5229
sI274
g5239
ssI296
(dp5358
I299
(dp5359
sI292
g5347
sI295
g5354
sI265
g5174
sI234
g4888
sI235
g4908
sI268
g5192
sI269
g5197
sI270
g5205
sI272
g5223
sI273
g5230
sI274
g5240
sI275
g5248
sI297
(dp5360
sI298
(dp5361
sI266
g5177
ssI297
(dp5362
I302
(dp5363
sI304
(dp5364
sI292
g5346
sI273
g5231
sI296
g5360
sI298
(dp5365
sI295
g5355
sI303
(dp5366
sI269
g5199
sI270
g5206
sI271
g5216
sI240
g4956
sI241
g4973
sI274
g5241
sI275
g5249
sI301
(dp5367
sI278
g5275
sI279
g5283
sI239
g4949
ssI298
(dp5368
I292
g5345
sI295
g5356
sI296
g5361
sI297
g5365
sI299
(dp5369
sI269
g5200
sI270
g5207
sI271
g5217
sI240
g4957
sI273
g5232
sI274
g5242
sI239
g4950
ssI299
(dp5370
I292
g5343
sI294
g5352
sI295
g5357
sI296
g5359
sI298
g5369
sI300
(dp5371
sI269
g5194
sI270
g5208
sI304
(dp5372
ssI300
(dp5373
I299
g5371
sI301
(dp5374
sI302
(dp5375
sI303
(dp5376
sI304
(dp5377
sI275
g5250
sI278
g5276
sI279
g5284
ssI301
(dp5378
I302
(dp5379
sI304
(dp5380
sI297
g5367
sI300
g5374
sI270
g5212
sI271
g5214
sI240
g4963
sI273
g5234
sI274
g5244
sI275
g5253
sI277
g5270
sI278
g5279
sI279
g5287
sI280
g5292
sI239
g4943
sI303
(dp5381
ssI302
(dp5382
I278
g5278
sI297
g5363
sI306
(dp5383
sI300
g5375
sI301
g5379
sI303
(dp5384
sI274
g5236
sI275
g5252
sI276
g5262
sI245
g5012
sI246
g5027
sI279
g5286
sI280
g5293
sI244
g5001
sI283
g5313
sI284
g5318
ssI303
(dp5385
I297
g5366
sI300
g5376
sI301
g5381
sI302
g5384
sI304
(dp5386
sI274
g5245
sI275
g5258
sI276
g5263
sI245
g5020
sI278
g5281
sI279
g5289
sI244
g5002
ssI304
(dp5387
I297
g5364
sI299
g5372
sI300
g5377
sI301
g5380
sI303
g5386
sI305
(dp5388
sI274
g5237
sI275
g5254
ssI305
(dp5389
I280
g5294
sI304
g5388
sI306
(dp5390
sI283
g5314
sI284
g5319
ssI306
(dp5391
I302
g5383
sI305
g5390
sI275
g5251
sI276
g5264
sI245
g5011
sI278
g5277
sI279
g5285
sI280
g5295
sI244
g5003
sI282
g5307
sI283
g5315
sI284
g5320
sI285
g5325
ssI307
(dp5392
sI308
(dp5393
sI309
(dp5394
sI310
(dp5395
sI311
(dp5396
sI312
(dp5397
sI313
(dp5398
sI314
(dp5399
sI315
(dp5400
sI316
(dp5401
sI317
(dp5402
sI318
(dp5403
sI319
(dp5404
sI320
(dp5405
sI321
(dp5406
sI322
(dp5407
sI323
(dp5408
sI324
(dp5409
sI325
(dp5410
sI326
(dp5411
sI327
(dp5412
sI328
(dp5413
sI329
(dp5414
sI330
(dp5415
sI331
(dp5416
sI332
(dp5417
sI333
(dp5418
sI334
(dp5419
sI335
(dp5420
sI336
(dp5421
sI337
(dp5422
sI338
(dp5423
sI339
(dp5424
sI340
(dp5425
sI341
(dp5426
sI342
(dp5427
sI343
(dp5428
sI344
(dp5429
sI345
(dp5430
sI346
(dp5431
sI347
(dp5432
sI348
(dp5433
sI349
(dp5434
sI350
(dp5435
sI351
(dp5436
sI352
(dp5437
sI353
(dp5438
sI354
(dp5439
sI355
(dp5440
sI356
(dp5441
sI357
(dp5442
sI358
(dp5443
sI359
(dp5444
sI360
(dp5445
sI361
(dp5446
sI362
(dp5447
sI363
(dp5448
sI364
(dp5449
sI365
(dp5450
sI366
(dp5451
ssS'adjlist_outer_dict_factory'
p5452
g7
sb.